
a.out:     file format elf64-x86-64


Disassembly of section .init:

0000000000401210 <_init>:
_init():
  401210:	48 83 ec 08          	sub    $0x8,%rsp
  401214:	48 8b 05 d5 fd 20 00 	mov    0x20fdd5(%rip),%rax        # 610ff0 <__gmon_start__>
  40121b:	48 85 c0             	test   %rax,%rax
  40121e:	74 02                	je     401222 <_init+0x12>
  401220:	ff d0                	callq  *%rax
  401222:	48 83 c4 08          	add    $0x8,%rsp
  401226:	c3                   	retq   

Disassembly of section .plt:

0000000000401230 <.plt>:
  401230:	ff 35 d2 fd 20 00    	pushq  0x20fdd2(%rip)        # 611008 <_GLOBAL_OFFSET_TABLE_+0x8>
  401236:	ff 25 d4 fd 20 00    	jmpq   *0x20fdd4(%rip)        # 611010 <_GLOBAL_OFFSET_TABLE_+0x10>
  40123c:	0f 1f 40 00          	nopl   0x0(%rax)

0000000000401240 <_ZStrsIcSt11char_traitsIcEERSt13basic_istreamIT_T0_ES6_RS3_@plt>:
  401240:	ff 25 d2 fd 20 00    	jmpq   *0x20fdd2(%rip)        # 611018 <_ZStrsIcSt11char_traitsIcEERSt13basic_istreamIT_T0_ES6_RS3_@GLIBCXX_3.4>
  401246:	68 00 00 00 00       	pushq  $0x0
  40124b:	e9 e0 ff ff ff       	jmpq   401230 <.plt>

0000000000401250 <_ZNSt14basic_ifstreamIcSt11char_traitsIcEED1Ev@plt>:
  401250:	ff 25 ca fd 20 00    	jmpq   *0x20fdca(%rip)        # 611020 <_ZNSt14basic_ifstreamIcSt11char_traitsIcEED1Ev@GLIBCXX_3.4>
  401256:	68 01 00 00 00       	pushq  $0x1
  40125b:	e9 d0 ff ff ff       	jmpq   401230 <.plt>

0000000000401260 <_ZNSt14basic_ifstreamIcSt11char_traitsIcEEC1EPKcSt13_Ios_Openmode@plt>:
  401260:	ff 25 c2 fd 20 00    	jmpq   *0x20fdc2(%rip)        # 611028 <_ZNSt14basic_ifstreamIcSt11char_traitsIcEEC1EPKcSt13_Ios_Openmode@GLIBCXX_3.4>
  401266:	68 02 00 00 00       	pushq  $0x2
  40126b:	e9 c0 ff ff ff       	jmpq   401230 <.plt>

0000000000401270 <__cxa_begin_catch@plt>:
  401270:	ff 25 ba fd 20 00    	jmpq   *0x20fdba(%rip)        # 611030 <__cxa_begin_catch@CXXABI_1.3>
  401276:	68 03 00 00 00       	pushq  $0x3
  40127b:	e9 b0 ff ff ff       	jmpq   401230 <.plt>

0000000000401280 <memcpy@plt>:
  401280:	ff 25 b2 fd 20 00    	jmpq   *0x20fdb2(%rip)        # 611038 <memcpy@GLIBC_2.14>
  401286:	68 04 00 00 00       	pushq  $0x4
  40128b:	e9 a0 ff ff ff       	jmpq   401230 <.plt>

0000000000401290 <_ZSt17__throw_bad_allocv@plt>:
  401290:	ff 25 aa fd 20 00    	jmpq   *0x20fdaa(%rip)        # 611040 <_ZSt17__throw_bad_allocv@GLIBCXX_3.4>
  401296:	68 05 00 00 00       	pushq  $0x5
  40129b:	e9 90 ff ff ff       	jmpq   401230 <.plt>

00000000004012a0 <_Znwm@plt>:
  4012a0:	ff 25 a2 fd 20 00    	jmpq   *0x20fda2(%rip)        # 611048 <_Znwm@GLIBCXX_3.4>
  4012a6:	68 06 00 00 00       	pushq  $0x6
  4012ab:	e9 80 ff ff ff       	jmpq   401230 <.plt>

00000000004012b0 <memmove@plt>:
  4012b0:	ff 25 9a fd 20 00    	jmpq   *0x20fd9a(%rip)        # 611050 <memmove@GLIBC_2.2.5>
  4012b6:	68 07 00 00 00       	pushq  $0x7
  4012bb:	e9 70 ff ff ff       	jmpq   401230 <.plt>

00000000004012c0 <pthread_mutex_unlock@plt>:
  4012c0:	ff 25 92 fd 20 00    	jmpq   *0x20fd92(%rip)        # 611058 <pthread_mutex_unlock@GLIBC_2.2.5>
  4012c6:	68 08 00 00 00       	pushq  $0x8
  4012cb:	e9 60 ff ff ff       	jmpq   401230 <.plt>

00000000004012d0 <_ZNSolsEb@plt>:
  4012d0:	ff 25 8a fd 20 00    	jmpq   *0x20fd8a(%rip)        # 611060 <_ZNSolsEb@GLIBCXX_3.4>
  4012d6:	68 09 00 00 00       	pushq  $0x9
  4012db:	e9 50 ff ff ff       	jmpq   401230 <.plt>

00000000004012e0 <pthread_mutex_lock@plt>:
  4012e0:	ff 25 82 fd 20 00    	jmpq   *0x20fd82(%rip)        # 611068 <pthread_mutex_lock@GLIBC_2.2.5>
  4012e6:	68 0a 00 00 00       	pushq  $0xa
  4012eb:	e9 40 ff ff ff       	jmpq   401230 <.plt>

00000000004012f0 <memset@plt>:
  4012f0:	ff 25 7a fd 20 00    	jmpq   *0x20fd7a(%rip)        # 611070 <memset@GLIBC_2.2.5>
  4012f6:	68 0b 00 00 00       	pushq  $0xb
  4012fb:	e9 30 ff ff ff       	jmpq   401230 <.plt>

0000000000401300 <_ZNSt14basic_ofstreamIcSt11char_traitsIcEEC1EPKcSt13_Ios_Openmode@plt>:
  401300:	ff 25 72 fd 20 00    	jmpq   *0x20fd72(%rip)        # 611078 <_ZNSt14basic_ofstreamIcSt11char_traitsIcEEC1EPKcSt13_Ios_Openmode@GLIBCXX_3.4>
  401306:	68 0c 00 00 00       	pushq  $0xc
  40130b:	e9 20 ff ff ff       	jmpq   401230 <.plt>

0000000000401310 <_ZNSolsEi@plt>:
  401310:	ff 25 6a fd 20 00    	jmpq   *0x20fd6a(%rip)        # 611080 <_ZNSolsEi@GLIBCXX_3.4>
  401316:	68 0d 00 00 00       	pushq  $0xd
  40131b:	e9 10 ff ff ff       	jmpq   401230 <.plt>

0000000000401320 <_ZdaPv@plt>:
  401320:	ff 25 62 fd 20 00    	jmpq   *0x20fd62(%rip)        # 611088 <_ZdaPv@GLIBCXX_3.4>
  401326:	68 0e 00 00 00       	pushq  $0xe
  40132b:	e9 00 ff ff ff       	jmpq   401230 <.plt>

0000000000401330 <_ZNSolsEl@plt>:
  401330:	ff 25 5a fd 20 00    	jmpq   *0x20fd5a(%rip)        # 611090 <_ZNSolsEl@GLIBCXX_3.4>
  401336:	68 0f 00 00 00       	pushq  $0xf
  40133b:	e9 f0 fe ff ff       	jmpq   401230 <.plt>

0000000000401340 <_ZSt20__throw_system_errori@plt>:
  401340:	ff 25 52 fd 20 00    	jmpq   *0x20fd52(%rip)        # 611098 <_ZSt20__throw_system_errori@GLIBCXX_3.4.11>
  401346:	68 10 00 00 00       	pushq  $0x10
  40134b:	e9 e0 fe ff ff       	jmpq   401230 <.plt>

0000000000401350 <_Znam@plt>:
  401350:	ff 25 4a fd 20 00    	jmpq   *0x20fd4a(%rip)        # 6110a0 <_Znam@GLIBCXX_3.4>
  401356:	68 11 00 00 00       	pushq  $0x11
  40135b:	e9 d0 fe ff ff       	jmpq   401230 <.plt>

0000000000401360 <pthread_exit@plt>:
  401360:	ff 25 42 fd 20 00    	jmpq   *0x20fd42(%rip)        # 6110a8 <pthread_exit@GLIBC_2.2.5>
  401366:	68 12 00 00 00       	pushq  $0x12
  40136b:	e9 c0 fe ff ff       	jmpq   401230 <.plt>

0000000000401370 <_ZdlPv@plt>:
  401370:	ff 25 3a fd 20 00    	jmpq   *0x20fd3a(%rip)        # 6110b0 <_ZdlPv@GLIBCXX_3.4>
  401376:	68 13 00 00 00       	pushq  $0x13
  40137b:	e9 b0 fe ff ff       	jmpq   401230 <.plt>

0000000000401380 <_ZStlsISt11char_traitsIcEERSt13basic_ostreamIcT_ES5_PKc@plt>:
  401380:	ff 25 32 fd 20 00    	jmpq   *0x20fd32(%rip)        # 6110b8 <_ZStlsISt11char_traitsIcEERSt13basic_ostreamIcT_ES5_PKc@GLIBCXX_3.4>
  401386:	68 14 00 00 00       	pushq  $0x14
  40138b:	e9 a0 fe ff ff       	jmpq   401230 <.plt>

0000000000401390 <__gxx_personality_v0@plt>:
  401390:	ff 25 2a fd 20 00    	jmpq   *0x20fd2a(%rip)        # 6110c0 <__gxx_personality_v0@CXXABI_1.3>
  401396:	68 15 00 00 00       	pushq  $0x15
  40139b:	e9 90 fe ff ff       	jmpq   401230 <.plt>

00000000004013a0 <_ZSt20__throw_length_errorPKc@plt>:
  4013a0:	ff 25 22 fd 20 00    	jmpq   *0x20fd22(%rip)        # 6110c8 <_ZSt20__throw_length_errorPKc@GLIBCXX_3.4>
  4013a6:	68 16 00 00 00       	pushq  $0x16
  4013ab:	e9 80 fe ff ff       	jmpq   401230 <.plt>

00000000004013b0 <_ZNSt14basic_ifstreamIcSt11char_traitsIcEE5closeEv@plt>:
  4013b0:	ff 25 1a fd 20 00    	jmpq   *0x20fd1a(%rip)        # 6110d0 <_ZNSt14basic_ifstreamIcSt11char_traitsIcEE5closeEv@GLIBCXX_3.4>
  4013b6:	68 17 00 00 00       	pushq  $0x17
  4013bb:	e9 70 fe ff ff       	jmpq   401230 <.plt>

00000000004013c0 <_Unwind_Resume@plt>:
  4013c0:	ff 25 12 fd 20 00    	jmpq   *0x20fd12(%rip)        # 6110d8 <_Unwind_Resume@GCC_3.0>
  4013c6:	68 18 00 00 00       	pushq  $0x18
  4013cb:	e9 60 fe ff ff       	jmpq   401230 <.plt>

00000000004013d0 <_ZNSt8ios_base4InitD1Ev@plt>:
  4013d0:	ff 25 0a fd 20 00    	jmpq   *0x20fd0a(%rip)        # 6110e0 <_ZNSt8ios_base4InitD1Ev@GLIBCXX_3.4>
  4013d6:	68 19 00 00 00       	pushq  $0x19
  4013db:	e9 50 fe ff ff       	jmpq   401230 <.plt>

00000000004013e0 <pthread_create@plt>:
  4013e0:	ff 25 02 fd 20 00    	jmpq   *0x20fd02(%rip)        # 6110e8 <pthread_create@GLIBC_2.2.5>
  4013e6:	68 1a 00 00 00       	pushq  $0x1a
  4013eb:	e9 40 fe ff ff       	jmpq   401230 <.plt>

00000000004013f0 <_ZNSt6chrono3_V212system_clock3nowEv@plt>:
  4013f0:	ff 25 fa fc 20 00    	jmpq   *0x20fcfa(%rip)        # 6110f0 <_ZNSt6chrono3_V212system_clock3nowEv@GLIBCXX_3.4.19>
  4013f6:	68 1b 00 00 00       	pushq  $0x1b
  4013fb:	e9 30 fe ff ff       	jmpq   401230 <.plt>

0000000000401400 <__cxa_end_catch@plt>:
  401400:	ff 25 f2 fc 20 00    	jmpq   *0x20fcf2(%rip)        # 6110f8 <__cxa_end_catch@CXXABI_1.3>
  401406:	68 1c 00 00 00       	pushq  $0x1c
  40140b:	e9 20 fe ff ff       	jmpq   401230 <.plt>

0000000000401410 <_ZNSt14basic_ofstreamIcSt11char_traitsIcEED1Ev@plt>:
  401410:	ff 25 ea fc 20 00    	jmpq   *0x20fcea(%rip)        # 611100 <_ZNSt14basic_ofstreamIcSt11char_traitsIcEED1Ev@GLIBCXX_3.4>
  401416:	68 1d 00 00 00       	pushq  $0x1d
  40141b:	e9 10 fe ff ff       	jmpq   401230 <.plt>

0000000000401420 <__cxa_rethrow@plt>:
  401420:	ff 25 e2 fc 20 00    	jmpq   *0x20fce2(%rip)        # 611108 <__cxa_rethrow@CXXABI_1.3>
  401426:	68 1e 00 00 00       	pushq  $0x1e
  40142b:	e9 00 fe ff ff       	jmpq   401230 <.plt>

0000000000401430 <_ZNSolsEj@plt>:
  401430:	ff 25 da fc 20 00    	jmpq   *0x20fcda(%rip)        # 611110 <_ZNSolsEj@GLIBCXX_3.4>
  401436:	68 1f 00 00 00       	pushq  $0x1f
  40143b:	e9 f0 fd ff ff       	jmpq   401230 <.plt>

0000000000401440 <pthread_detach@plt>:
  401440:	ff 25 d2 fc 20 00    	jmpq   *0x20fcd2(%rip)        # 611118 <pthread_detach@GLIBC_2.2.5>
  401446:	68 20 00 00 00       	pushq  $0x20
  40144b:	e9 e0 fd ff ff       	jmpq   401230 <.plt>

0000000000401450 <__cxa_atexit@plt>:
  401450:	ff 25 ca fc 20 00    	jmpq   *0x20fcca(%rip)        # 611120 <__cxa_atexit@GLIBC_2.2.5>
  401456:	68 21 00 00 00       	pushq  $0x21
  40145b:	e9 d0 fd ff ff       	jmpq   401230 <.plt>

0000000000401460 <__pthread_key_create@plt>:
  401460:	ff 25 c2 fc 20 00    	jmpq   *0x20fcc2(%rip)        # 611128 <__pthread_key_create@GLIBC_2.2.5>
  401466:	68 22 00 00 00       	pushq  $0x22
  40146b:	e9 c0 fd ff ff       	jmpq   401230 <.plt>

0000000000401470 <_ZSt4endlIcSt11char_traitsIcEERSt13basic_ostreamIT_T0_ES6_@plt>:
  401470:	ff 25 ba fc 20 00    	jmpq   *0x20fcba(%rip)        # 611130 <_ZSt4endlIcSt11char_traitsIcEERSt13basic_ostreamIT_T0_ES6_@GLIBCXX_3.4>
  401476:	68 23 00 00 00       	pushq  $0x23
  40147b:	e9 b0 fd ff ff       	jmpq   401230 <.plt>

0000000000401480 <_ZNSt8ios_base4InitC1Ev@plt>:
  401480:	ff 25 b2 fc 20 00    	jmpq   *0x20fcb2(%rip)        # 611138 <_ZNSt8ios_base4InitC1Ev@GLIBCXX_3.4>
  401486:	68 24 00 00 00       	pushq  $0x24
  40148b:	e9 a0 fd ff ff       	jmpq   401230 <.plt>

0000000000401490 <_ZNSolsEPFRSoS_E@plt>:
  401490:	ff 25 aa fc 20 00    	jmpq   *0x20fcaa(%rip)        # 611140 <_ZNSolsEPFRSoS_E@GLIBCXX_3.4>
  401496:	68 25 00 00 00       	pushq  $0x25
  40149b:	e9 90 fd ff ff       	jmpq   401230 <.plt>

00000000004014a0 <_ZSt9terminatev@plt>:
  4014a0:	ff 25 a2 fc 20 00    	jmpq   *0x20fca2(%rip)        # 611148 <_ZSt9terminatev@GLIBCXX_3.4>
  4014a6:	68 26 00 00 00       	pushq  $0x26
  4014ab:	e9 80 fd ff ff       	jmpq   401230 <.plt>

00000000004014b0 <_ZNKSt9basic_iosIcSt11char_traitsIcEE3eofEv@plt>:
  4014b0:	ff 25 9a fc 20 00    	jmpq   *0x20fc9a(%rip)        # 611150 <_ZNKSt9basic_iosIcSt11char_traitsIcEE3eofEv@GLIBCXX_3.4>
  4014b6:	68 27 00 00 00       	pushq  $0x27
  4014bb:	e9 70 fd ff ff       	jmpq   401230 <.plt>

00000000004014c0 <_ZNSirsERi@plt>:
  4014c0:	ff 25 92 fc 20 00    	jmpq   *0x20fc92(%rip)        # 611158 <_ZNSirsERi@GLIBCXX_3.4>
  4014c6:	68 28 00 00 00       	pushq  $0x28
  4014cb:	e9 60 fd ff ff       	jmpq   401230 <.plt>

Disassembly of section .text:

00000000004014d0 <__cxx_global_var_init>:
__cxx_global_var_init():
/usr/bin/../lib/gcc/x86_64-linux-gnu/9/../../../../include/c++/9/iostream:74
  4014d0:	50                   	push   %rax
  4014d1:	48 bf cc bb 61 00 00 	movabs $0x61bbcc,%rdi
  4014d8:	00 00 00 
  4014db:	e8 a0 ff ff ff       	callq  401480 <_ZNSt8ios_base4InitC1Ev@plt>
  4014e0:	48 b8 d0 13 40 00 00 	movabs $0x4013d0,%rax
  4014e7:	00 00 00 
  4014ea:	48 89 c7             	mov    %rax,%rdi
  4014ed:	48 be cc bb 61 00 00 	movabs $0x61bbcc,%rsi
  4014f4:	00 00 00 
  4014f7:	48 ba 68 11 61 00 00 	movabs $0x611168,%rdx
  4014fe:	00 00 00 
  401501:	e8 4a ff ff ff       	callq  401450 <__cxa_atexit@plt>
  401506:	58                   	pop    %rax
  401507:	c3                   	retq   
  401508:	0f 1f 84 00 00 00 00 	nopl   0x0(%rax,%rax,1)
  40150f:	00 

0000000000401510 <__cxx_global_var_init.1>:
__cxx_global_var_init.1():
/home/hoss/Documents/algorithms/server_layer/server/multi_threader.cpp:51
  401510:	50                   	push   %rax
  401511:	48 bf c0 13 61 00 00 	movabs $0x6113c0,%rdi
  401518:	00 00 00 
  40151b:	48 be b0 b6 40 00 00 	movabs $0x40b6b0,%rsi
  401522:	00 00 00 
  401525:	ba 10 00 00 00       	mov    $0x10,%edx
  40152a:	e8 d1 fd ff ff       	callq  401300 <_ZNSt14basic_ofstreamIcSt11char_traitsIcEEC1EPKcSt13_Ios_Openmode@plt>
  40152f:	48 b8 10 14 40 00 00 	movabs $0x401410,%rax
  401536:	00 00 00 
  401539:	48 b9 c0 13 61 00 00 	movabs $0x6113c0,%rcx
  401540:	00 00 00 
  401543:	48 89 c7             	mov    %rax,%rdi
  401546:	48 89 ce             	mov    %rcx,%rsi
  401549:	48 ba 68 11 61 00 00 	movabs $0x611168,%rdx
  401550:	00 00 00 
  401553:	e8 f8 fe ff ff       	callq  401450 <__cxa_atexit@plt>
  401558:	58                   	pop    %rax
  401559:	c3                   	retq   
  40155a:	66 0f 1f 44 00 00    	nopw   0x0(%rax,%rax,1)

0000000000401560 <__cxx_global_var_init.2>:
__cxx_global_var_init.2():
/home/hoss/Documents/algorithms/server_layer/server/multi_threader.cpp:424
  401560:	50                   	push   %rax
  401561:	48 bf c0 15 61 00 00 	movabs $0x6115c0,%rdi
  401568:	00 00 00 
  40156b:	be 33 00 00 00       	mov    $0x33,%esi
  401570:	ba 16 00 00 00       	mov    $0x16,%edx
  401575:	e8 e6 04 00 00       	callq  401a60 <_ZN3objC2Eii>
  40157a:	48 b8 40 1b 40 00 00 	movabs $0x401b40,%rax
  401581:	00 00 00 
  401584:	48 b9 c0 15 61 00 00 	movabs $0x6115c0,%rcx
  40158b:	00 00 00 
  40158e:	48 89 c7             	mov    %rax,%rdi
  401591:	48 89 ce             	mov    %rcx,%rsi
  401594:	48 ba 68 11 61 00 00 	movabs $0x611168,%rdx
  40159b:	00 00 00 
  40159e:	e8 ad fe ff ff       	callq  401450 <__cxa_atexit@plt>
  4015a3:	58                   	pop    %rax
  4015a4:	c3                   	retq   
  4015a5:	90                   	nop
  4015a6:	66 2e 0f 1f 84 00 00 	nopw   %cs:0x0(%rax,%rax,1)
  4015ad:	00 00 00 

00000000004015b0 <_GLOBAL__sub_I_multi_threader.cpp>:
_GLOBAL__sub_I_multi_threader.cpp():
/home/hoss/Documents/algorithms/server_layer/server/multi_threader.cpp:424
  4015b0:	50                   	push   %rax
  4015b1:	e8 1a ff ff ff       	callq  4014d0 <__cxx_global_var_init>
  4015b6:	e8 55 ff ff ff       	callq  401510 <__cxx_global_var_init.1>
  4015bb:	e8 a0 ff ff ff       	callq  401560 <__cxx_global_var_init.2>
  4015c0:	58                   	pop    %rax
  4015c1:	c3                   	retq   
  4015c2:	66 2e 0f 1f 84 00 00 	nopw   %cs:0x0(%rax,%rax,1)
  4015c9:	00 00 00 
  4015cc:	0f 1f 40 00          	nopl   0x0(%rax)

00000000004015d0 <_start>:
_start():
  4015d0:	31 ed                	xor    %ebp,%ebp
  4015d2:	49 89 d1             	mov    %rdx,%r9
  4015d5:	5e                   	pop    %rsi
  4015d6:	48 89 e2             	mov    %rsp,%rdx
  4015d9:	48 83 e4 f0          	and    $0xfffffffffffffff0,%rsp
  4015dd:	50                   	push   %rax
  4015de:	54                   	push   %rsp
  4015df:	49 c7 c0 20 b6 40 00 	mov    $0x40b620,%r8
  4015e6:	48 c7 c1 b0 b5 40 00 	mov    $0x40b5b0,%rcx
  4015ed:	48 c7 c7 d0 16 40 00 	mov    $0x4016d0,%rdi
  4015f4:	ff 15 fe f9 20 00    	callq  *0x20f9fe(%rip)        # 610ff8 <__libc_start_main@GLIBC_2.2.5>
  4015fa:	f4                   	hlt    
  4015fb:	0f 1f 44 00 00       	nopl   0x0(%rax,%rax,1)

0000000000401600 <_dl_relocate_static_pie>:
_dl_relocate_static_pie():
  401600:	f3 c3                	repz retq 
  401602:	66 2e 0f 1f 84 00 00 	nopw   %cs:0x0(%rax,%rax,1)
  401609:	00 00 00 
  40160c:	0f 1f 40 00          	nopl   0x0(%rax)

0000000000401610 <deregister_tm_clones>:
deregister_tm_clones():
  401610:	b8 70 11 61 00       	mov    $0x611170,%eax
  401615:	48 3d 70 11 61 00    	cmp    $0x611170,%rax
  40161b:	74 13                	je     401630 <deregister_tm_clones+0x20>
  40161d:	b8 00 00 00 00       	mov    $0x0,%eax
  401622:	48 85 c0             	test   %rax,%rax
  401625:	74 09                	je     401630 <deregister_tm_clones+0x20>
  401627:	bf 70 11 61 00       	mov    $0x611170,%edi
  40162c:	ff e0                	jmpq   *%rax
  40162e:	66 90                	xchg   %ax,%ax
  401630:	c3                   	retq   
  401631:	0f 1f 44 00 00       	nopl   0x0(%rax,%rax,1)
  401636:	66 2e 0f 1f 84 00 00 	nopw   %cs:0x0(%rax,%rax,1)
  40163d:	00 00 00 

0000000000401640 <register_tm_clones>:
register_tm_clones():
  401640:	be 70 11 61 00       	mov    $0x611170,%esi
  401645:	48 81 ee 70 11 61 00 	sub    $0x611170,%rsi
  40164c:	48 89 f0             	mov    %rsi,%rax
  40164f:	48 c1 ee 3f          	shr    $0x3f,%rsi
  401653:	48 c1 f8 03          	sar    $0x3,%rax
  401657:	48 01 c6             	add    %rax,%rsi
  40165a:	48 d1 fe             	sar    %rsi
  40165d:	74 11                	je     401670 <register_tm_clones+0x30>
  40165f:	b8 00 00 00 00       	mov    $0x0,%eax
  401664:	48 85 c0             	test   %rax,%rax
  401667:	74 07                	je     401670 <register_tm_clones+0x30>
  401669:	bf 70 11 61 00       	mov    $0x611170,%edi
  40166e:	ff e0                	jmpq   *%rax
  401670:	c3                   	retq   
  401671:	0f 1f 44 00 00       	nopl   0x0(%rax,%rax,1)
  401676:	66 2e 0f 1f 84 00 00 	nopw   %cs:0x0(%rax,%rax,1)
  40167d:	00 00 00 

0000000000401680 <__do_global_dtors_aux>:
__do_global_dtors_aux():
  401680:	80 3d 31 fd 20 00 00 	cmpb   $0x0,0x20fd31(%rip)        # 6113b8 <completed.8086>
  401687:	75 17                	jne    4016a0 <__do_global_dtors_aux+0x20>
  401689:	55                   	push   %rbp
  40168a:	48 89 e5             	mov    %rsp,%rbp
  40168d:	e8 7e ff ff ff       	callq  401610 <deregister_tm_clones>
  401692:	c6 05 1f fd 20 00 01 	movb   $0x1,0x20fd1f(%rip)        # 6113b8 <completed.8086>
  401699:	5d                   	pop    %rbp
  40169a:	c3                   	retq   
  40169b:	0f 1f 44 00 00       	nopl   0x0(%rax,%rax,1)
  4016a0:	c3                   	retq   
  4016a1:	0f 1f 44 00 00       	nopl   0x0(%rax,%rax,1)
  4016a6:	66 2e 0f 1f 84 00 00 	nopw   %cs:0x0(%rax,%rax,1)
  4016ad:	00 00 00 

00000000004016b0 <frame_dummy>:
frame_dummy():
  4016b0:	eb 8e                	jmp    401640 <register_tm_clones>
  4016b2:	66 2e 0f 1f 84 00 00 	nopw   %cs:0x0(%rax,%rax,1)
  4016b9:	00 00 00 
  4016bc:	0f 1f 40 00          	nopl   0x0(%rax)

00000000004016c0 <_Z3foov>:
_Z3foov():
/home/hoss/Documents/algorithms/server_layer/server/multi_threader.cpp:808
  4016c0:	b8 64 00 00 00       	mov    $0x64,%eax
  4016c5:	c3                   	retq   
/home/hoss/Documents/algorithms/server_layer/server/multi_threader.cpp:811
  4016c6:	b8 01 00 00 00       	mov    $0x1,%eax
  4016cb:	c3                   	retq   
  4016cc:	0f 1f 40 00          	nopl   0x0(%rax)

00000000004016d0 <main>:
main():
/home/hoss/Documents/algorithms/server_layer/server/multi_threader.cpp:813
  4016d0:	48 81 ec 58 a0 00 00 	sub    $0xa058,%rsp
  4016d7:	c7 84 24 54 a0 00 00 	movl   $0x0,0xa054(%rsp)
  4016de:	00 00 00 00 
/home/hoss/Documents/algorithms/server_layer/server/multi_threader.cpp:817
  4016e2:	48 8d bc 24 48 9e 00 	lea    0x9e48(%rsp),%rdi
  4016e9:	00 
  4016ea:	48 be c6 b6 40 00 00 	movabs $0x40b6c6,%rsi
  4016f1:	00 00 00 
  4016f4:	ba 08 00 00 00       	mov    $0x8,%edx
  4016f9:	e8 62 fb ff ff       	callq  401260 <_ZNSt14basic_ifstreamIcSt11char_traitsIcEEC1EPKcSt13_Ios_Openmode@plt>
/home/hoss/Documents/algorithms/server_layer/server/multi_threader.cpp:818
  4016fe:	48 8d bc 24 30 9e 00 	lea    0x9e30(%rsp),%rdi
  401705:	00 
  401706:	e8 55 04 00 00       	callq  401b60 <_ZNSt6vectorIS_IiSaIiEESaIS1_EEC2Ev>
/home/hoss/Documents/algorithms/server_layer/server/multi_threader.cpp:822
  40170b:	c7 84 24 1c 9e 00 00 	movl   $0x0,0x9e1c(%rsp)
  401712:	00 00 00 00 
/home/hoss/Documents/algorithms/server_layer/server/multi_threader.cpp:823
  401716:	48 8b 84 24 48 9e 00 	mov    0x9e48(%rsp),%rax
  40171d:	00 
  40171e:	48 8b 40 e8          	mov    -0x18(%rax),%rax
  401722:	48 8d bc 04 48 9e 00 	lea    0x9e48(%rsp,%rax,1),%rdi
  401729:	00 
  40172a:	e8 81 fd ff ff       	callq  4014b0 <_ZNKSt9basic_iosIcSt11char_traitsIcEE3eofEv@plt>
  40172f:	88 44 24 47          	mov    %al,0x47(%rsp)
  401733:	eb 00                	jmp    401735 <main+0x65>
  401735:	8a 44 24 47          	mov    0x47(%rsp),%al
  401739:	34 ff                	xor    $0xff,%al
  40173b:	a8 01                	test   $0x1,%al
  40173d:	75 05                	jne    401744 <main+0x74>
  40173f:	e9 c6 01 00 00       	jmpq   40190a <main+0x23a>
  401744:	48 8d bc 24 48 9e 00 	lea    0x9e48(%rsp),%rdi
  40174b:	00 
  40174c:	48 8d b4 24 23 9e 00 	lea    0x9e23(%rsp),%rsi
  401753:	00 
/home/hoss/Documents/algorithms/server_layer/server/multi_threader.cpp:824
  401754:	e8 e7 fa ff ff       	callq  401240 <_ZStrsIcSt11char_traitsIcEERSt13basic_istreamIT_T0_ES6_RS3_@plt>
  401759:	48 89 44 24 38       	mov    %rax,0x38(%rsp)
  40175e:	eb 00                	jmp    401760 <main+0x90>
  401760:	48 8d b4 24 23 9e 00 	lea    0x9e23(%rsp),%rsi
  401767:	00 
  401768:	48 8b 7c 24 38       	mov    0x38(%rsp),%rdi
  40176d:	e8 ce fa ff ff       	callq  401240 <_ZStrsIcSt11char_traitsIcEERSt13basic_istreamIT_T0_ES6_RS3_@plt>
  401772:	48 89 44 24 30       	mov    %rax,0x30(%rsp)
  401777:	eb 00                	jmp    401779 <main+0xa9>
  401779:	48 8d b4 24 2c 9e 00 	lea    0x9e2c(%rsp),%rsi
  401780:	00 
  401781:	48 8b 7c 24 30       	mov    0x30(%rsp),%rdi
  401786:	e8 35 fd ff ff       	callq  4014c0 <_ZNSirsERi@plt>
  40178b:	48 89 44 24 28       	mov    %rax,0x28(%rsp)
  401790:	eb 00                	jmp    401792 <main+0xc2>
  401792:	48 8d b4 24 23 9e 00 	lea    0x9e23(%rsp),%rsi
  401799:	00 
  40179a:	48 8b 7c 24 28       	mov    0x28(%rsp),%rdi
  40179f:	e8 9c fa ff ff       	callq  401240 <_ZStrsIcSt11char_traitsIcEERSt13basic_istreamIT_T0_ES6_RS3_@plt>
  4017a4:	48 89 44 24 20       	mov    %rax,0x20(%rsp)
  4017a9:	eb 00                	jmp    4017ab <main+0xdb>
  4017ab:	48 8d b4 24 28 9e 00 	lea    0x9e28(%rsp),%rsi
  4017b2:	00 
  4017b3:	48 8b 7c 24 20       	mov    0x20(%rsp),%rdi
  4017b8:	e8 03 fd ff ff       	callq  4014c0 <_ZNSirsERi@plt>
  4017bd:	48 89 44 24 18       	mov    %rax,0x18(%rsp)
  4017c2:	eb 00                	jmp    4017c4 <main+0xf4>
  4017c4:	48 8d b4 24 23 9e 00 	lea    0x9e23(%rsp),%rsi
  4017cb:	00 
  4017cc:	48 8b 7c 24 18       	mov    0x18(%rsp),%rdi
  4017d1:	e8 6a fa ff ff       	callq  401240 <_ZStrsIcSt11char_traitsIcEERSt13basic_istreamIT_T0_ES6_RS3_@plt>
  4017d6:	48 89 44 24 10       	mov    %rax,0x10(%rsp)
  4017db:	eb 00                	jmp    4017dd <main+0x10d>
  4017dd:	48 8d b4 24 24 9e 00 	lea    0x9e24(%rsp),%rsi
  4017e4:	00 
  4017e5:	48 8b 7c 24 10       	mov    0x10(%rsp),%rdi
  4017ea:	e8 d1 fc ff ff       	callq  4014c0 <_ZNSirsERi@plt>
  4017ef:	eb 00                	jmp    4017f1 <main+0x121>
/home/hoss/Documents/algorithms/server_layer/server/multi_threader.cpp:825
  4017f1:	8b 84 24 1c 9e 00 00 	mov    0x9e1c(%rsp),%eax
  4017f8:	83 c0 01             	add    $0x1,%eax
  4017fb:	89 84 24 1c 9e 00 00 	mov    %eax,0x9e1c(%rsp)
/home/hoss/Documents/algorithms/server_layer/server/multi_threader.cpp:826
  401802:	8b 84 24 2c 9e 00 00 	mov    0x9e2c(%rsp),%eax
  401809:	89 84 24 d4 9d 00 00 	mov    %eax,0x9dd4(%rsp)
  401810:	8b 84 24 28 9e 00 00 	mov    0x9e28(%rsp),%eax
  401817:	89 84 24 d8 9d 00 00 	mov    %eax,0x9dd8(%rsp)
  40181e:	8b 84 24 24 9e 00 00 	mov    0x9e24(%rsp),%eax
  401825:	89 84 24 dc 9d 00 00 	mov    %eax,0x9ddc(%rsp)
  40182c:	48 8d 8c 24 d4 9d 00 	lea    0x9dd4(%rsp),%rcx
  401833:	00 
  401834:	48 89 8c 24 e0 9d 00 	mov    %rcx,0x9de0(%rsp)
  40183b:	00 
  40183c:	48 c7 84 24 e8 9d 00 	movq   $0x3,0x9de8(%rsp)
  401843:	00 03 00 00 00 
  401848:	48 8d 8c 24 d0 9d 00 	lea    0x9dd0(%rsp),%rcx
  40184f:	00 
  401850:	48 89 cf             	mov    %rcx,%rdi
  401853:	48 89 4c 24 08       	mov    %rcx,0x8(%rsp)
  401858:	e8 63 03 00 00       	callq  401bc0 <_ZNSaIiEC2Ev>
  40185d:	48 8b b4 24 e0 9d 00 	mov    0x9de0(%rsp),%rsi
  401864:	00 
  401865:	48 8b 94 24 e8 9d 00 	mov    0x9de8(%rsp),%rdx
  40186c:	00 
  40186d:	48 8d bc 24 f0 9d 00 	lea    0x9df0(%rsp),%rdi
  401874:	00 
  401875:	48 8b 4c 24 08       	mov    0x8(%rsp),%rcx
  40187a:	e8 61 03 00 00       	callq  401be0 <_ZNSt6vectorIiSaIiEEC2ESt16initializer_listIiERKS0_>
  40187f:	eb 00                	jmp    401881 <main+0x1b1>
  401881:	48 8d bc 24 30 9e 00 	lea    0x9e30(%rsp),%rdi
  401888:	00 
  401889:	48 8d b4 24 f0 9d 00 	lea    0x9df0(%rsp),%rsi
  401890:	00 
  401891:	e8 ea 02 00 00       	callq  401b80 <_ZNSt6vectorIS_IiSaIiEESaIS1_EE9push_backEOS1_>
  401896:	eb 00                	jmp    401898 <main+0x1c8>
  401898:	48 8d bc 24 f0 9d 00 	lea    0x9df0(%rsp),%rdi
  40189f:	00 
  4018a0:	e8 cb 03 00 00       	callq  401c70 <_ZNSt6vectorIiSaIiEED2Ev>
  4018a5:	48 8d bc 24 d0 9d 00 	lea    0x9dd0(%rsp),%rdi
  4018ac:	00 
  4018ad:	e8 3e 04 00 00       	callq  401cf0 <_ZNSaIiED2Ev>
/home/hoss/Documents/algorithms/server_layer/server/multi_threader.cpp:823
  4018b2:	e9 5f fe ff ff       	jmpq   401716 <main+0x46>
/home/hoss/Documents/algorithms/server_layer/server/multi_threader.cpp:839
  4018b7:	48 89 84 24 10 9e 00 	mov    %rax,0x9e10(%rsp)
  4018be:	00 
  4018bf:	89 94 24 0c 9e 00 00 	mov    %edx,0x9e0c(%rsp)
  4018c6:	e9 d9 00 00 00       	jmpq   4019a4 <main+0x2d4>
  4018cb:	48 89 84 24 10 9e 00 	mov    %rax,0x9e10(%rsp)
  4018d2:	00 
  4018d3:	89 94 24 0c 9e 00 00 	mov    %edx,0x9e0c(%rsp)
  4018da:	eb 1c                	jmp    4018f8 <main+0x228>
  4018dc:	48 89 84 24 10 9e 00 	mov    %rax,0x9e10(%rsp)
  4018e3:	00 
  4018e4:	89 94 24 0c 9e 00 00 	mov    %edx,0x9e0c(%rsp)
/home/hoss/Documents/algorithms/server_layer/server/multi_threader.cpp:826
  4018eb:	48 8d bc 24 f0 9d 00 	lea    0x9df0(%rsp),%rdi
  4018f2:	00 
  4018f3:	e8 78 03 00 00       	callq  401c70 <_ZNSt6vectorIiSaIiEED2Ev>
  4018f8:	48 8d bc 24 d0 9d 00 	lea    0x9dd0(%rsp),%rdi
  4018ff:	00 
  401900:	e8 eb 03 00 00       	callq  401cf0 <_ZNSaIiED2Ev>
  401905:	e9 9a 00 00 00       	jmpq   4019a4 <main+0x2d4>
  40190a:	48 8d bc 24 48 9e 00 	lea    0x9e48(%rsp),%rdi
  401911:	00 
/home/hoss/Documents/algorithms/server_layer/server/multi_threader.cpp:829
  401912:	e8 99 fa ff ff       	callq  4013b0 <_ZNSt14basic_ifstreamIcSt11char_traitsIcEE5closeEv@plt>
  401917:	eb 00                	jmp    401919 <main+0x249>
  401919:	48 8d 7c 24 48       	lea    0x48(%rsp),%rdi
  40191e:	be 01 00 00 00       	mov    $0x1,%esi
  401923:	ba 2c 01 00 00       	mov    $0x12c,%edx
  401928:	b9 33 00 00 00       	mov    $0x33,%ecx
  40192d:	41 b8 16 00 00 00    	mov    $0x16,%r8d
/home/hoss/Documents/algorithms/server_layer/server/multi_threader.cpp:830
  401933:	e8 d8 03 00 00       	callq  401d10 <_ZN8SolutionC2Ejjjj>
  401938:	eb 00                	jmp    40193a <main+0x26a>
  40193a:	48 8d 7c 24 48       	lea    0x48(%rsp),%rdi
  40193f:	48 8d b4 24 30 9e 00 	lea    0x9e30(%rsp),%rsi
  401946:	00 
  401947:	ba 32 00 00 00       	mov    $0x32,%edx
  40194c:	b9 16 00 00 00       	mov    $0x16,%ecx
/home/hoss/Documents/algorithms/server_layer/server/multi_threader.cpp:831
  401951:	e8 fa 04 00 00       	callq  401e50 <_ZN8Solution16networkDelayTimeERSt6vectorIS0_IiSaIiEESaIS2_EEii>
  401956:	eb 00                	jmp    401958 <main+0x288>
/home/hoss/Documents/algorithms/server_layer/server/multi_threader.cpp:839
  401958:	48 8d 7c 24 48       	lea    0x48(%rsp),%rdi
  40195d:	e8 0e 11 00 00       	callq  402a70 <_ZN8SolutionD2Ev>
  401962:	48 8d bc 24 30 9e 00 	lea    0x9e30(%rsp),%rdi
  401969:	00 
  40196a:	e8 51 11 00 00       	callq  402ac0 <_ZNSt6vectorIS_IiSaIiEESaIS1_EED2Ev>
  40196f:	48 8d bc 24 48 9e 00 	lea    0x9e48(%rsp),%rdi
  401976:	00 
  401977:	e8 d4 f8 ff ff       	callq  401250 <_ZNSt14basic_ifstreamIcSt11char_traitsIcEED1Ev@plt>
  40197c:	8b 84 24 54 a0 00 00 	mov    0xa054(%rsp),%eax
  401983:	48 81 c4 58 a0 00 00 	add    $0xa058,%rsp
  40198a:	c3                   	retq   
  40198b:	48 89 84 24 10 9e 00 	mov    %rax,0x9e10(%rsp)
  401992:	00 
  401993:	89 94 24 0c 9e 00 00 	mov    %edx,0x9e0c(%rsp)
  40199a:	48 8d 7c 24 48       	lea    0x48(%rsp),%rdi
  40199f:	e8 cc 10 00 00       	callq  402a70 <_ZN8SolutionD2Ev>
  4019a4:	48 8d bc 24 30 9e 00 	lea    0x9e30(%rsp),%rdi
  4019ab:	00 
  4019ac:	e8 0f 11 00 00       	callq  402ac0 <_ZNSt6vectorIS_IiSaIiEESaIS1_EED2Ev>
  4019b1:	48 8d bc 24 48 9e 00 	lea    0x9e48(%rsp),%rdi
  4019b8:	00 
  4019b9:	e8 92 f8 ff ff       	callq  401250 <_ZNSt14basic_ifstreamIcSt11char_traitsIcEED1Ev@plt>
  4019be:	48 8b bc 24 10 9e 00 	mov    0x9e10(%rsp),%rdi
  4019c5:	00 
  4019c6:	e8 f5 f9 ff ff       	callq  4013c0 <_Unwind_Resume@plt>
  4019cb:	0f 1f 44 00 00       	nopl   0x0(%rax,%rax,1)

00000000004019d0 <_ZL20__gthread_mutex_lockP15pthread_mutex_t>:
_ZL20__gthread_mutex_lockP15pthread_mutex_t():
/usr/bin/../lib/gcc/x86_64-linux-gnu/9/../../../../include/x86_64-linux-gnu/c++/9/bits/gthr-default.h:747
  4019d0:	48 83 ec 18          	sub    $0x18,%rsp
  4019d4:	48 89 7c 24 08       	mov    %rdi,0x8(%rsp)
/usr/bin/../lib/gcc/x86_64-linux-gnu/9/../../../../include/x86_64-linux-gnu/c++/9/bits/gthr-default.h:748
  4019d9:	e8 32 00 00 00       	callq  401a10 <_ZL18__gthread_active_pv>
  4019de:	83 f8 00             	cmp    $0x0,%eax
  4019e1:	74 10                	je     4019f3 <_ZL20__gthread_mutex_lockP15pthread_mutex_t+0x23>
/usr/bin/../lib/gcc/x86_64-linux-gnu/9/../../../../include/x86_64-linux-gnu/c++/9/bits/gthr-default.h:749
  4019e3:	48 8b 7c 24 08       	mov    0x8(%rsp),%rdi
  4019e8:	e8 f3 f8 ff ff       	callq  4012e0 <pthread_mutex_lock@plt>
  4019ed:	89 44 24 14          	mov    %eax,0x14(%rsp)
  4019f1:	eb 08                	jmp    4019fb <_ZL20__gthread_mutex_lockP15pthread_mutex_t+0x2b>
/usr/bin/../lib/gcc/x86_64-linux-gnu/9/../../../../include/x86_64-linux-gnu/c++/9/bits/gthr-default.h:751
  4019f3:	c7 44 24 14 00 00 00 	movl   $0x0,0x14(%rsp)
  4019fa:	00 
/usr/bin/../lib/gcc/x86_64-linux-gnu/9/../../../../include/x86_64-linux-gnu/c++/9/bits/gthr-default.h:752
  4019fb:	8b 44 24 14          	mov    0x14(%rsp),%eax
  4019ff:	48 83 c4 18          	add    $0x18,%rsp
  401a03:	c3                   	retq   
  401a04:	66 90                	xchg   %ax,%ax
  401a06:	66 2e 0f 1f 84 00 00 	nopw   %cs:0x0(%rax,%rax,1)
  401a0d:	00 00 00 

0000000000401a10 <_ZL18__gthread_active_pv>:
_ZL18__gthread_active_pv():
/usr/bin/../lib/gcc/x86_64-linux-gnu/9/../../../../include/x86_64-linux-gnu/c++/9/bits/gthr-default.h:252
  401a10:	b8 60 14 40 00       	mov    $0x401460,%eax
  401a15:	48 85 c0             	test   %rax,%rax
  401a18:	0f 95 c1             	setne  %cl
  401a1b:	0f b6 c1             	movzbl %cl,%eax
  401a1e:	c3                   	retq   
  401a1f:	90                   	nop

0000000000401a20 <_ZL22__gthread_mutex_unlockP15pthread_mutex_t>:
_ZL22__gthread_mutex_unlockP15pthread_mutex_t():
/usr/bin/../lib/gcc/x86_64-linux-gnu/9/../../../../include/x86_64-linux-gnu/c++/9/bits/gthr-default.h:777
  401a20:	48 83 ec 18          	sub    $0x18,%rsp
  401a24:	48 89 7c 24 08       	mov    %rdi,0x8(%rsp)
/usr/bin/../lib/gcc/x86_64-linux-gnu/9/../../../../include/x86_64-linux-gnu/c++/9/bits/gthr-default.h:778
  401a29:	e8 e2 ff ff ff       	callq  401a10 <_ZL18__gthread_active_pv>
  401a2e:	83 f8 00             	cmp    $0x0,%eax
  401a31:	74 10                	je     401a43 <_ZL22__gthread_mutex_unlockP15pthread_mutex_t+0x23>
/usr/bin/../lib/gcc/x86_64-linux-gnu/9/../../../../include/x86_64-linux-gnu/c++/9/bits/gthr-default.h:779
  401a33:	48 8b 7c 24 08       	mov    0x8(%rsp),%rdi
  401a38:	e8 83 f8 ff ff       	callq  4012c0 <pthread_mutex_unlock@plt>
  401a3d:	89 44 24 14          	mov    %eax,0x14(%rsp)
  401a41:	eb 08                	jmp    401a4b <_ZL22__gthread_mutex_unlockP15pthread_mutex_t+0x2b>
/usr/bin/../lib/gcc/x86_64-linux-gnu/9/../../../../include/x86_64-linux-gnu/c++/9/bits/gthr-default.h:781
  401a43:	c7 44 24 14 00 00 00 	movl   $0x0,0x14(%rsp)
  401a4a:	00 
/usr/bin/../lib/gcc/x86_64-linux-gnu/9/../../../../include/x86_64-linux-gnu/c++/9/bits/gthr-default.h:782
  401a4b:	8b 44 24 14          	mov    0x14(%rsp),%eax
  401a4f:	48 83 c4 18          	add    $0x18,%rsp
  401a53:	c3                   	retq   
  401a54:	66 2e 0f 1f 84 00 00 	nopw   %cs:0x0(%rax,%rax,1)
  401a5b:	00 00 00 
  401a5e:	66 90                	xchg   %ax,%ax

0000000000401a60 <_ZN3objC2Eii>:
obj():
/home/hoss/Documents/algorithms/server_layer/server/multi_threader.cpp:420
  401a60:	48 83 ec 58          	sub    $0x58,%rsp
  401a64:	48 89 7c 24 50       	mov    %rdi,0x50(%rsp)
  401a69:	89 74 24 4c          	mov    %esi,0x4c(%rsp)
  401a6d:	89 54 24 48          	mov    %edx,0x48(%rsp)
  401a71:	48 8b 44 24 50       	mov    0x50(%rsp),%rax
  401a76:	48 89 c1             	mov    %rax,%rcx
  401a79:	48 81 c1 d0 00 00 00 	add    $0xd0,%rcx
  401a80:	48 63 74 24 4c       	movslq 0x4c(%rsp),%rsi
  401a85:	48 8d 7c 24 40       	lea    0x40(%rsp),%rdi
  401a8a:	48 89 7c 24 28       	mov    %rdi,0x28(%rsp)
  401a8f:	48 89 44 24 20       	mov    %rax,0x20(%rsp)
  401a94:	48 89 4c 24 18       	mov    %rcx,0x18(%rsp)
  401a99:	48 89 74 24 10       	mov    %rsi,0x10(%rsp)
  401a9e:	e8 9d 10 00 00       	callq  402b40 <_ZNSaISt6vectorIS_IiSaIiEESaIS1_EEEC2Ev>
  401aa3:	48 8b 7c 24 18       	mov    0x18(%rsp),%rdi
  401aa8:	48 8b 74 24 10       	mov    0x10(%rsp),%rsi
  401aad:	48 8b 54 24 28       	mov    0x28(%rsp),%rdx
  401ab2:	e8 a9 10 00 00       	callq  402b60 <_ZNSt6vectorIS_IS_IiSaIiEESaIS1_EESaIS3_EEC2EmRKS4_>
  401ab7:	eb 00                	jmp    401ab9 <_ZN3objC2Eii+0x59>
  401ab9:	48 8d 7c 24 40       	lea    0x40(%rsp),%rdi
  401abe:	e8 1d 11 00 00       	callq  402be0 <_ZNSaISt6vectorIS_IiSaIiEESaIS1_EEED2Ev>
  401ac3:	48 8b 44 24 20       	mov    0x20(%rsp),%rax
/home/hoss/Documents/algorithms/server_layer/server/multi_threader.cpp:415
  401ac8:	48 05 e8 00 00 00    	add    $0xe8,%rax
  401ace:	48 8b 4c 24 20       	mov    0x20(%rsp),%rcx
  401ad3:	c7 81 e8 00 00 00 00 	movl   $0x0,0xe8(%rcx)
  401ada:	00 00 00 
  401add:	48 89 c2             	mov    %rax,%rdx
  401ae0:	48 83 c2 04          	add    $0x4,%rdx
  401ae4:	48 05 cc 00 00 00    	add    $0xcc,%rax
  401aea:	48 89 44 24 08       	mov    %rax,0x8(%rsp)
  401aef:	48 89 14 24          	mov    %rdx,(%rsp)
  401af3:	48 8b 04 24          	mov    (%rsp),%rax
  401af7:	c7 00 00 00 00 00    	movl   $0x0,(%rax)
  401afd:	48 83 c0 04          	add    $0x4,%rax
  401b01:	48 8b 4c 24 08       	mov    0x8(%rsp),%rcx
  401b06:	48 39 c8             	cmp    %rcx,%rax
  401b09:	48 89 04 24          	mov    %rax,(%rsp)
  401b0d:	75 e4                	jne    401af3 <_ZN3objC2Eii+0x93>
/home/hoss/Documents/algorithms/server_layer/server/multi_threader.cpp:418
  401b0f:	8b 44 24 48          	mov    0x48(%rsp),%eax
  401b13:	48 8b 4c 24 20       	mov    0x20(%rsp),%rcx
  401b18:	89 81 b4 01 00 00    	mov    %eax,0x1b4(%rcx)
/home/hoss/Documents/algorithms/server_layer/server/multi_threader.cpp:422
  401b1e:	48 83 c4 58          	add    $0x58,%rsp
  401b22:	c3                   	retq   
  401b23:	48 89 44 24 38       	mov    %rax,0x38(%rsp)
  401b28:	89 54 24 34          	mov    %edx,0x34(%rsp)
/home/hoss/Documents/algorithms/server_layer/server/multi_threader.cpp:420
  401b2c:	48 8d 7c 24 40       	lea    0x40(%rsp),%rdi
  401b31:	e8 aa 10 00 00       	callq  402be0 <_ZNSaISt6vectorIS_IiSaIiEESaIS1_EEED2Ev>
  401b36:	48 8b 7c 24 38       	mov    0x38(%rsp),%rdi
  401b3b:	e8 80 f8 ff ff       	callq  4013c0 <_Unwind_Resume@plt>

0000000000401b40 <_ZN3objD2Ev>:
~obj():
/home/hoss/Documents/algorithms/server_layer/server/multi_threader.cpp:406
  401b40:	50                   	push   %rax
  401b41:	48 89 3c 24          	mov    %rdi,(%rsp)
  401b45:	48 8b 04 24          	mov    (%rsp),%rax
  401b49:	48 05 d0 00 00 00    	add    $0xd0,%rax
  401b4f:	48 89 c7             	mov    %rax,%rdi
  401b52:	e8 f9 17 00 00       	callq  403350 <_ZNSt6vectorIS_IS_IiSaIiEESaIS1_EESaIS3_EED2Ev>
  401b57:	58                   	pop    %rax
  401b58:	c3                   	retq   
_ZN3objD2Ev():
  401b59:	0f 1f 80 00 00 00 00 	nopl   0x0(%rax)

0000000000401b60 <_ZNSt6vectorIS_IiSaIiEESaIS1_EEC2Ev>:
vector():
/usr/bin/../lib/gcc/x86_64-linux-gnu/9/../../../../include/c++/9/bits/stl_vector.h:484
  401b60:	50                   	push   %rax
  401b61:	48 89 3c 24          	mov    %rdi,(%rsp)
  401b65:	48 8b 04 24          	mov    (%rsp),%rax
  401b69:	48 89 c7             	mov    %rax,%rdi
  401b6c:	e8 8f 18 00 00       	callq  403400 <_ZNSt12_Vector_baseISt6vectorIiSaIiEESaIS2_EEC2Ev>
  401b71:	58                   	pop    %rax
  401b72:	c3                   	retq   
_ZNSt6vectorIS_IiSaIiEESaIS1_EEC2Ev():
  401b73:	66 2e 0f 1f 84 00 00 	nopw   %cs:0x0(%rax,%rax,1)
  401b7a:	00 00 00 
  401b7d:	0f 1f 00             	nopl   (%rax)

0000000000401b80 <_ZNSt6vectorIS_IiSaIiEESaIS1_EE9push_backEOS1_>:
_ZNSt6vectorIS_IiSaIiEESaIS1_EE9push_backEOS1_():
/usr/bin/../lib/gcc/x86_64-linux-gnu/9/../../../../include/c++/9/bits/stl_vector.h:1201
  401b80:	48 83 ec 18          	sub    $0x18,%rsp
  401b84:	48 89 7c 24 10       	mov    %rdi,0x10(%rsp)
  401b89:	48 89 74 24 08       	mov    %rsi,0x8(%rsp)
  401b8e:	48 8b 7c 24 10       	mov    0x10(%rsp),%rdi
  401b93:	48 8b 44 24 08       	mov    0x8(%rsp),%rax
  401b98:	48 89 3c 24          	mov    %rdi,(%rsp)
  401b9c:	48 89 c7             	mov    %rax,%rdi
  401b9f:	e8 5c 6d 00 00       	callq  408900 <_ZSt4moveIRSt6vectorIiSaIiEEEONSt16remove_referenceIT_E4typeEOS5_>
  401ba4:	48 8b 3c 24          	mov    (%rsp),%rdi
  401ba8:	48 89 c6             	mov    %rax,%rsi
  401bab:	e8 70 23 00 00       	callq  403f20 <_ZNSt6vectorIS_IiSaIiEESaIS1_EE12emplace_backIJS1_EEERS1_DpOT_>
  401bb0:	48 83 c4 18          	add    $0x18,%rsp
  401bb4:	c3                   	retq   
  401bb5:	66 2e 0f 1f 84 00 00 	nopw   %cs:0x0(%rax,%rax,1)
  401bbc:	00 00 00 
  401bbf:	90                   	nop

0000000000401bc0 <_ZNSaIiEC2Ev>:
allocator():
/usr/bin/../lib/gcc/x86_64-linux-gnu/9/../../../../include/c++/9/bits/allocator.h:138
  401bc0:	50                   	push   %rax
  401bc1:	48 89 3c 24          	mov    %rdi,(%rsp)
  401bc5:	48 8b 04 24          	mov    (%rsp),%rax
  401bc9:	48 89 c7             	mov    %rax,%rdi
  401bcc:	e8 8f 1d 00 00       	callq  403960 <_ZN9__gnu_cxx13new_allocatorIiEC2Ev>
  401bd1:	58                   	pop    %rax
  401bd2:	c3                   	retq   
_ZNSaIiEC2Ev():
  401bd3:	66 2e 0f 1f 84 00 00 	nopw   %cs:0x0(%rax,%rax,1)
  401bda:	00 00 00 
  401bdd:	0f 1f 00             	nopl   (%rax)

0000000000401be0 <_ZNSt6vectorIiSaIiEEC2ESt16initializer_listIiERKS0_>:
vector():
/usr/bin/../lib/gcc/x86_64-linux-gnu/9/../../../../include/c++/9/bits/stl_vector.h:625
  401be0:	48 83 ec 58          	sub    $0x58,%rsp
  401be4:	48 89 74 24 48       	mov    %rsi,0x48(%rsp)
  401be9:	48 89 54 24 50       	mov    %rdx,0x50(%rsp)
  401bee:	48 89 7c 24 40       	mov    %rdi,0x40(%rsp)
  401bf3:	48 89 4c 24 38       	mov    %rcx,0x38(%rsp)
  401bf8:	48 8b 44 24 40       	mov    0x40(%rsp),%rax
/usr/bin/../lib/gcc/x86_64-linux-gnu/9/../../../../include/c++/9/bits/stl_vector.h:624
  401bfd:	48 8b 74 24 38       	mov    0x38(%rsp),%rsi
  401c02:	48 89 c7             	mov    %rax,%rdi
  401c05:	48 89 44 24 10       	mov    %rax,0x10(%rsp)
  401c0a:	e8 51 94 00 00       	callq  40b060 <_ZNSt12_Vector_baseIiSaIiEEC2ERKS0_>
  401c0f:	48 8d 44 24 48       	lea    0x48(%rsp),%rax
/usr/bin/../lib/gcc/x86_64-linux-gnu/9/../../../../include/c++/9/bits/stl_vector.h:626
  401c14:	48 89 c7             	mov    %rax,%rdi
  401c17:	48 89 44 24 08       	mov    %rax,0x8(%rsp)
  401c1c:	e8 3f 95 00 00       	callq  40b160 <_ZNKSt16initializer_listIiE5beginEv>
  401c21:	48 8b 7c 24 08       	mov    0x8(%rsp),%rdi
  401c26:	48 89 04 24          	mov    %rax,(%rsp)
  401c2a:	e8 41 95 00 00       	callq  40b170 <_ZNKSt16initializer_listIiE3endEv>
  401c2f:	48 8b 7c 24 10       	mov    0x10(%rsp),%rdi
  401c34:	48 8b 34 24          	mov    (%rsp),%rsi
  401c38:	48 89 c2             	mov    %rax,%rdx
  401c3b:	e8 50 94 00 00       	callq  40b090 <_ZNSt6vectorIiSaIiEE19_M_range_initializeIPKiEEvT_S5_St20forward_iterator_tag>
  401c40:	eb 00                	jmp    401c42 <_ZNSt6vectorIiSaIiEEC2ESt16initializer_listIiERKS0_+0x62>
/usr/bin/../lib/gcc/x86_64-linux-gnu/9/../../../../include/c++/9/bits/stl_vector.h:628
  401c42:	48 83 c4 58          	add    $0x58,%rsp
  401c46:	c3                   	retq   
  401c47:	48 89 44 24 20       	mov    %rax,0x20(%rsp)
  401c4c:	89 54 24 1c          	mov    %edx,0x1c(%rsp)
  401c50:	48 8b 44 24 10       	mov    0x10(%rsp),%rax
  401c55:	48 89 c7             	mov    %rax,%rdi
  401c58:	e8 03 56 00 00       	callq  407260 <_ZNSt12_Vector_baseIiSaIiEED2Ev>
  401c5d:	48 8b 7c 24 20       	mov    0x20(%rsp),%rdi
  401c62:	e8 59 f7 ff ff       	callq  4013c0 <_Unwind_Resume@plt>
_ZNSt6vectorIiSaIiEEC2ESt16initializer_listIiERKS0_():
  401c67:	66 0f 1f 84 00 00 00 	nopw   0x0(%rax,%rax,1)
  401c6e:	00 00 

0000000000401c70 <_ZNSt6vectorIiSaIiEED2Ev>:
~vector():
/usr/bin/../lib/gcc/x86_64-linux-gnu/9/../../../../include/c++/9/bits/stl_vector.h:676
  401c70:	48 83 ec 38          	sub    $0x38,%rsp
  401c74:	48 89 7c 24 30       	mov    %rdi,0x30(%rsp)
  401c79:	48 8b 44 24 30       	mov    0x30(%rsp),%rax
/usr/bin/../lib/gcc/x86_64-linux-gnu/9/../../../../include/c++/9/bits/stl_vector.h:677
  401c7e:	48 8b 38             	mov    (%rax),%rdi
  401c81:	48 8b 70 08          	mov    0x8(%rax),%rsi
  401c85:	48 89 7c 24 18       	mov    %rdi,0x18(%rsp)
/usr/bin/../lib/gcc/x86_64-linux-gnu/9/../../../../include/c++/9/bits/stl_vector.h:678
  401c8a:	48 89 c7             	mov    %rax,%rdi
  401c8d:	48 89 44 24 10       	mov    %rax,0x10(%rsp)
  401c92:	48 89 74 24 08       	mov    %rsi,0x8(%rsp)
  401c97:	e8 14 30 00 00       	callq  404cb0 <_ZNSt12_Vector_baseIiSaIiEE19_M_get_Tp_allocatorEv>
  401c9c:	48 8b 7c 24 18       	mov    0x18(%rsp),%rdi
  401ca1:	48 8b 74 24 08       	mov    0x8(%rsp),%rsi
/usr/bin/../lib/gcc/x86_64-linux-gnu/9/../../../../include/c++/9/bits/stl_vector.h:677
  401ca6:	48 89 c2             	mov    %rax,%rdx
  401ca9:	e8 22 33 00 00       	callq  404fd0 <_ZSt8_DestroyIPiiEvT_S1_RSaIT0_E>
  401cae:	eb 00                	jmp    401cb0 <_ZNSt6vectorIiSaIiEED2Ev+0x40>
  401cb0:	48 8b 44 24 10       	mov    0x10(%rsp),%rax
/usr/bin/../lib/gcc/x86_64-linux-gnu/9/../../../../include/c++/9/bits/stl_vector.h:680
  401cb5:	48 89 c7             	mov    %rax,%rdi
  401cb8:	e8 a3 55 00 00       	callq  407260 <_ZNSt12_Vector_baseIiSaIiEED2Ev>
  401cbd:	48 83 c4 38          	add    $0x38,%rsp
  401cc1:	c3                   	retq   
  401cc2:	48 89 44 24 28       	mov    %rax,0x28(%rsp)
  401cc7:	89 54 24 24          	mov    %edx,0x24(%rsp)
  401ccb:	48 8b 44 24 10       	mov    0x10(%rsp),%rax
  401cd0:	48 89 c7             	mov    %rax,%rdi
  401cd3:	e8 88 55 00 00       	callq  407260 <_ZNSt12_Vector_baseIiSaIiEED2Ev>
  401cd8:	48 8b 7c 24 28       	mov    0x28(%rsp),%rdi
  401cdd:	e8 be 11 00 00       	callq  402ea0 <__clang_call_terminate>
_ZNSt6vectorIiSaIiEED2Ev():
  401ce2:	66 2e 0f 1f 84 00 00 	nopw   %cs:0x0(%rax,%rax,1)
  401ce9:	00 00 00 
  401cec:	0f 1f 40 00          	nopl   0x0(%rax)

0000000000401cf0 <_ZNSaIiED2Ev>:
~allocator():
/usr/bin/../lib/gcc/x86_64-linux-gnu/9/../../../../include/c++/9/bits/allocator.h:153
  401cf0:	50                   	push   %rax
  401cf1:	48 89 3c 24          	mov    %rdi,(%rsp)
  401cf5:	48 8b 04 24          	mov    (%rsp),%rax
  401cf9:	48 89 c7             	mov    %rax,%rdi
  401cfc:	e8 df 56 00 00       	callq  4073e0 <_ZN9__gnu_cxx13new_allocatorIiED2Ev>
  401d01:	58                   	pop    %rax
  401d02:	c3                   	retq   
_ZNSaIiED2Ev():
  401d03:	66 2e 0f 1f 84 00 00 	nopw   %cs:0x0(%rax,%rax,1)
  401d0a:	00 00 00 
  401d0d:	0f 1f 00             	nopl   (%rax)

0000000000401d10 <_ZN8SolutionC2Ejjjj>:
Solution():
/home/hoss/Documents/algorithms/server_layer/server/multi_threader.cpp:538
  401d10:	48 83 ec 28          	sub    $0x28,%rsp
  401d14:	48 89 7c 24 20       	mov    %rdi,0x20(%rsp)
  401d19:	89 74 24 1c          	mov    %esi,0x1c(%rsp)
  401d1d:	89 54 24 18          	mov    %edx,0x18(%rsp)
  401d21:	89 4c 24 14          	mov    %ecx,0x14(%rsp)
  401d25:	44 89 44 24 10       	mov    %r8d,0x10(%rsp)
  401d2a:	48 8b 44 24 20       	mov    0x20(%rsp),%rax
/home/hoss/Documents/algorithms/server_layer/server/multi_threader.cpp:537
  401d2f:	8b 74 24 1c          	mov    0x1c(%rsp),%esi
  401d33:	48 89 c7             	mov    %rax,%rdi
  401d36:	48 89 04 24          	mov    %rax,(%rsp)
  401d3a:	e8 61 17 00 00       	callq  4034a0 <_ZNSt6atomicIjEC2Ej>
  401d3f:	31 f6                	xor    %esi,%esi
  401d41:	48 8b 04 24          	mov    (%rsp),%rax
/home/hoss/Documents/algorithms/server_layer/server/multi_threader.cpp:490
  401d45:	48 05 d0 00 00 00    	add    $0xd0,%rax
  401d4b:	48 89 c7             	mov    %rax,%rdi
  401d4e:	e8 7d 17 00 00       	callq  4034d0 <_ZNSt6atomicIiEC2Ei>
  401d53:	31 f6                	xor    %esi,%esi
  401d55:	48 8b 04 24          	mov    (%rsp),%rax
/home/hoss/Documents/algorithms/server_layer/server/multi_threader.cpp:491
  401d59:	48 05 d4 00 00 00    	add    $0xd4,%rax
  401d5f:	48 89 c7             	mov    %rax,%rdi
  401d62:	e8 69 17 00 00       	callq  4034d0 <_ZNSt6atomicIiEC2Ei>
  401d67:	31 f6                	xor    %esi,%esi
  401d69:	48 8b 04 24          	mov    (%rsp),%rax
/home/hoss/Documents/algorithms/server_layer/server/multi_threader.cpp:492
  401d6d:	48 05 d8 00 00 00    	add    $0xd8,%rax
  401d73:	48 89 c7             	mov    %rax,%rdi
  401d76:	e8 55 17 00 00       	callq  4034d0 <_ZNSt6atomicIiEC2Ei>
  401d7b:	31 f6                	xor    %esi,%esi
  401d7d:	48 8b 04 24          	mov    (%rsp),%rax
/home/hoss/Documents/algorithms/server_layer/server/multi_threader.cpp:497
  401d81:	48 05 20 9d 00 00    	add    $0x9d20,%rax
  401d87:	48 89 c7             	mov    %rax,%rdi
  401d8a:	e8 11 17 00 00       	callq  4034a0 <_ZNSt6atomicIjEC2Ej>
  401d8f:	31 f6                	xor    %esi,%esi
  401d91:	48 8b 04 24          	mov    (%rsp),%rax
/home/hoss/Documents/algorithms/server_layer/server/multi_threader.cpp:498
  401d95:	48 05 24 9d 00 00    	add    $0x9d24,%rax
  401d9b:	48 89 c7             	mov    %rax,%rdi
  401d9e:	e8 fd 16 00 00       	callq  4034a0 <_ZNSt6atomicIjEC2Ej>
  401da3:	48 8b 04 24          	mov    (%rsp),%rax
/home/hoss/Documents/algorithms/server_layer/server/multi_threader.cpp:538
  401da7:	48 05 28 9d 00 00    	add    $0x9d28,%rax
  401dad:	8b 4c 24 18          	mov    0x18(%rsp),%ecx
  401db1:	89 ce                	mov    %ecx,%esi
  401db3:	48 89 c7             	mov    %rax,%rdi
  401db6:	e8 45 17 00 00       	callq  403500 <_ZSt11make_uniqueIA_St11atomic_flagENSt9_MakeUniqIT_E7__arrayEm>
  401dbb:	48 8b 04 24          	mov    (%rsp),%rax
/home/hoss/Documents/algorithms/server_layer/server/multi_threader.cpp:535
  401dbf:	48 05 30 9d 00 00    	add    $0x9d30,%rax
  401dc5:	48 89 c7             	mov    %rax,%rdi
  401dc8:	e8 93 17 00 00       	callq  403560 <_ZNSt10unique_ptrIA_St6atomicIiESt14default_deleteIS2_EEC2IS4_vEEv>
  401dcd:	48 8b 04 24          	mov    (%rsp),%rax
  401dd1:	48 05 70 9d 00 00    	add    $0x9d70,%rax
  401dd7:	48 89 c7             	mov    %rax,%rdi
  401dda:	e8 b1 17 00 00       	callq  403590 <_ZNSt6vectorIiSaIiEEC2Ev>
  401ddf:	31 f6                	xor    %esi,%esi
/home/hoss/Documents/algorithms/server_layer/server/multi_threader.cpp:539
  401de1:	8b 4c 24 10          	mov    0x10(%rsp),%ecx
  401de5:	89 0c 25 78 17 61 00 	mov    %ecx,0x611778
  401dec:	48 8b 04 24          	mov    (%rsp),%rax
/home/hoss/Documents/algorithms/server_layer/server/multi_threader.cpp:540
  401df0:	48 05 6c 9d 00 00    	add    $0x9d6c,%rax
  401df6:	48 89 c7             	mov    %rax,%rdi
  401df9:	e8 b2 17 00 00       	callq  4035b0 <_ZNSt13__atomic_baseIjEaSEj>
/home/hoss/Documents/algorithms/server_layer/server/multi_threader.cpp:541
  401dfe:	c7 44 24 0c 00 00 00 	movl   $0x0,0xc(%rsp)
  401e05:	00 
/home/hoss/Documents/algorithms/server_layer/server/multi_threader.cpp:542
  401e06:	8b 4c 24 14          	mov    0x14(%rsp),%ecx
  401e0a:	89 4c 24 08          	mov    %ecx,0x8(%rsp)
/home/hoss/Documents/algorithms/server_layer/server/multi_threader.cpp:543
  401e0e:	8b 44 24 0c          	mov    0xc(%rsp),%eax
  401e12:	3b 44 24 08          	cmp    0x8(%rsp),%eax
  401e16:	74 33                	je     401e4b <_ZN8SolutionC2Ejjjj+0x13b>
/home/hoss/Documents/algorithms/server_layer/server/multi_threader.cpp:544
  401e18:	48 63 44 24 0c       	movslq 0xc(%rsp),%rax
  401e1d:	48 8b 0c 24          	mov    (%rsp),%rcx
  401e21:	c7 44 81 04 ff ff ff 	movl   $0x7fffffff,0x4(%rcx,%rax,4)
  401e28:	7f 
/home/hoss/Documents/algorithms/server_layer/server/multi_threader.cpp:545
  401e29:	48 63 44 24 0c       	movslq 0xc(%rsp),%rax
  401e2e:	8b 54 81 04          	mov    0x4(%rcx,%rax,4),%edx
  401e32:	48 63 44 24 0c       	movslq 0xc(%rsp),%rax
  401e37:	89 14 85 00 bb 61 00 	mov    %edx,0x61bb00(,%rax,4)
/home/hoss/Documents/algorithms/server_layer/server/multi_threader.cpp:546
  401e3e:	8b 54 24 0c          	mov    0xc(%rsp),%edx
  401e42:	83 c2 01             	add    $0x1,%edx
  401e45:	89 54 24 0c          	mov    %edx,0xc(%rsp)
/home/hoss/Documents/algorithms/server_layer/server/multi_threader.cpp:543
  401e49:	eb c3                	jmp    401e0e <_ZN8SolutionC2Ejjjj+0xfe>
/home/hoss/Documents/algorithms/server_layer/server/multi_threader.cpp:548
  401e4b:	48 83 c4 28          	add    $0x28,%rsp
  401e4f:	c3                   	retq   

0000000000401e50 <_ZN8Solution16networkDelayTimeERSt6vectorIS0_IiSaIiEESaIS2_EEii>:
_ZN8Solution16networkDelayTimeERSt6vectorIS0_IiSaIiEESaIS2_EEii():
/home/hoss/Documents/algorithms/server_layer/server/multi_threader.cpp:679
  401e50:	48 81 ec a8 04 00 00 	sub    $0x4a8,%rsp
  401e57:	48 89 bc 24 a0 04 00 	mov    %rdi,0x4a0(%rsp)
  401e5e:	00 
  401e5f:	48 89 b4 24 98 04 00 	mov    %rsi,0x498(%rsp)
  401e66:	00 
  401e67:	89 94 24 94 04 00 00 	mov    %edx,0x494(%rsp)
  401e6e:	89 8c 24 90 04 00 00 	mov    %ecx,0x490(%rsp)
  401e75:	48 8b 84 24 a0 04 00 	mov    0x4a0(%rsp),%rax
  401e7c:	00 
/home/hoss/Documents/algorithms/server_layer/server/multi_threader.cpp:680
  401e7d:	48 89 c6             	mov    %rax,%rsi
  401e80:	48 81 c6 70 9d 00 00 	add    $0x9d70,%rsi
  401e87:	8b 8c 24 94 04 00 00 	mov    0x494(%rsp),%ecx
  401e8e:	83 c1 01             	add    $0x1,%ecx
  401e91:	48 63 f9             	movslq %ecx,%rdi
  401e94:	c7 84 24 8c 04 00 00 	movl   $0x7fffffff,0x48c(%rsp)
  401e9b:	ff ff ff 7f 
  401e9f:	48 8d 94 24 8c 04 00 	lea    0x48c(%rsp),%rdx
  401ea6:	00 
  401ea7:	48 89 bc 24 00 01 00 	mov    %rdi,0x100(%rsp)
  401eae:	00 
  401eaf:	48 89 f7             	mov    %rsi,%rdi
  401eb2:	48 8b b4 24 00 01 00 	mov    0x100(%rsp),%rsi
  401eb9:	00 
  401eba:	48 89 84 24 f8 00 00 	mov    %rax,0xf8(%rsp)
  401ec1:	00 
  401ec2:	e8 c9 1a 00 00       	callq  403990 <_ZNSt6vectorIiSaIiEE6resizeEmRKi>
/home/hoss/Documents/algorithms/server_layer/server/multi_threader.cpp:681
  401ec7:	8b 8c 24 94 04 00 00 	mov    0x494(%rsp),%ecx
  401ece:	83 c1 01             	add    $0x1,%ecx
  401ed1:	48 63 f1             	movslq %ecx,%rsi
  401ed4:	c6 84 24 5f 04 00 00 	movb   $0x0,0x45f(%rsp)
  401edb:	00 
  401edc:	48 8d 84 24 58 04 00 	lea    0x458(%rsp),%rax
  401ee3:	00 
  401ee4:	48 89 c7             	mov    %rax,%rdi
  401ee7:	48 89 b4 24 f0 00 00 	mov    %rsi,0xf0(%rsp)
  401eee:	00 
  401eef:	48 89 84 24 e8 00 00 	mov    %rax,0xe8(%rsp)
  401ef6:	00 
  401ef7:	e8 64 1b 00 00       	callq  403a60 <_ZNSaIbEC2Ev>
  401efc:	48 8d bc 24 60 04 00 	lea    0x460(%rsp),%rdi
  401f03:	00 
  401f04:	48 8d 94 24 5f 04 00 	lea    0x45f(%rsp),%rdx
  401f0b:	00 
  401f0c:	48 8b b4 24 f0 00 00 	mov    0xf0(%rsp),%rsi
  401f13:	00 
  401f14:	48 8b 8c 24 e8 00 00 	mov    0xe8(%rsp),%rcx
  401f1b:	00 
  401f1c:	e8 5f 1b 00 00       	callq  403a80 <_ZNSt6vectorIbSaIbEEC2EmRKbRKS0_>
  401f21:	eb 00                	jmp    401f23 <_ZN8Solution16networkDelayTimeERSt6vectorIS0_IiSaIiEESaIS2_EEii+0xd3>
  401f23:	48 8d bc 24 58 04 00 	lea    0x458(%rsp),%rdi
  401f2a:	00 
  401f2b:	e8 d0 1b 00 00       	callq  403b00 <_ZNSaIbED2Ev>
/home/hoss/Documents/algorithms/server_layer/server/multi_threader.cpp:683
  401f30:	8b 84 24 94 04 00 00 	mov    0x494(%rsp),%eax
  401f37:	83 c0 01             	add    $0x1,%eax
  401f3a:	48 63 f0             	movslq %eax,%rsi
  401f3d:	0f 57 c0             	xorps  %xmm0,%xmm0
  401f40:	0f 29 84 24 10 04 00 	movaps %xmm0,0x410(%rsp)
  401f47:	00 
  401f48:	48 c7 84 24 20 04 00 	movq   $0x0,0x420(%rsp)
  401f4f:	00 00 00 00 00 
  401f54:	48 8d 8c 24 10 04 00 	lea    0x410(%rsp),%rcx
  401f5b:	00 
  401f5c:	48 89 cf             	mov    %rcx,%rdi
  401f5f:	48 89 b4 24 e0 00 00 	mov    %rsi,0xe0(%rsp)
  401f66:	00 
  401f67:	48 89 8c 24 d8 00 00 	mov    %rcx,0xd8(%rsp)
  401f6e:	00 
  401f6f:	e8 ac 1b 00 00       	callq  403b20 <_ZNSt6vectorISt4pairIiiESaIS1_EEC2Ev>
  401f74:	48 8d 8c 24 08 04 00 	lea    0x408(%rsp),%rcx
  401f7b:	00 
/home/hoss/Documents/algorithms/server_layer/server/multi_threader.cpp:682
  401f7c:	48 89 cf             	mov    %rcx,%rdi
  401f7f:	48 89 8c 24 d0 00 00 	mov    %rcx,0xd0(%rsp)
  401f86:	00 
  401f87:	e8 b4 1b 00 00       	callq  403b40 <_ZNSaISt6vectorISt4pairIiiESaIS1_EEEC2Ev>
  401f8c:	48 8d bc 24 30 04 00 	lea    0x430(%rsp),%rdi
  401f93:	00 
  401f94:	48 8b b4 24 e0 00 00 	mov    0xe0(%rsp),%rsi
  401f9b:	00 
  401f9c:	48 8b 94 24 d8 00 00 	mov    0xd8(%rsp),%rdx
  401fa3:	00 
  401fa4:	48 8b 8c 24 d0 00 00 	mov    0xd0(%rsp),%rcx
  401fab:	00 
  401fac:	e8 af 1b 00 00       	callq  403b60 <_ZNSt6vectorIS_ISt4pairIiiESaIS1_EESaIS3_EEC2EmRKS3_RKS4_>
  401fb1:	eb 00                	jmp    401fb3 <_ZN8Solution16networkDelayTimeERSt6vectorIS0_IiSaIiEESaIS2_EEii+0x163>
  401fb3:	48 8d bc 24 08 04 00 	lea    0x408(%rsp),%rdi
  401fba:	00 
  401fbb:	e8 20 1c 00 00       	callq  403be0 <_ZNSaISt6vectorISt4pairIiiESaIS1_EEED2Ev>
  401fc0:	48 8d bc 24 10 04 00 	lea    0x410(%rsp),%rdi
  401fc7:	00 
  401fc8:	e8 33 1c 00 00       	callq  403c00 <_ZNSt6vectorISt4pairIiiESaIS1_EED2Ev>
/home/hoss/Documents/algorithms/server_layer/server/multi_threader.cpp:685
  401fcd:	48 8b 84 24 98 04 00 	mov    0x498(%rsp),%rax
  401fd4:	00 
  401fd5:	48 89 84 24 00 04 00 	mov    %rax,0x400(%rsp)
  401fdc:	00 
  401fdd:	48 8b bc 24 00 04 00 	mov    0x400(%rsp),%rdi
  401fe4:	00 
  401fe5:	e8 96 1c 00 00       	callq  403c80 <_ZNSt6vectorIS_IiSaIiEESaIS1_EE5beginEv>
  401fea:	48 89 84 24 f8 03 00 	mov    %rax,0x3f8(%rsp)
  401ff1:	00 
  401ff2:	48 8b bc 24 00 04 00 	mov    0x400(%rsp),%rdi
  401ff9:	00 
  401ffa:	e8 b1 1c 00 00       	callq  403cb0 <_ZNSt6vectorIS_IiSaIiEESaIS1_EE3endEv>
  401fff:	48 89 84 24 f0 03 00 	mov    %rax,0x3f0(%rsp)
  402006:	00 
  402007:	48 8d bc 24 f8 03 00 	lea    0x3f8(%rsp),%rdi
  40200e:	00 
  40200f:	48 8d b4 24 f0 03 00 	lea    0x3f0(%rsp),%rsi
  402016:	00 
  402017:	e8 c4 1c 00 00       	callq  403ce0 <_ZN9__gnu_cxxneIPSt6vectorIiSaIiEES1_IS3_SaIS3_EEEEbRKNS_17__normal_iteratorIT_T0_EESC_>
  40201c:	a8 01                	test   $0x1,%al
  40201e:	75 05                	jne    402025 <_ZN8Solution16networkDelayTimeERSt6vectorIS0_IiSaIiEESaIS2_EEii+0x1d5>
  402020:	e9 92 02 00 00       	jmpq   4022b7 <_ZN8Solution16networkDelayTimeERSt6vectorIS0_IiSaIiEESaIS2_EEii+0x467>
  402025:	48 8d bc 24 f8 03 00 	lea    0x3f8(%rsp),%rdi
  40202c:	00 
  40202d:	e8 ee 1c 00 00       	callq  403d20 <_ZNK9__gnu_cxx17__normal_iteratorIPSt6vectorIiSaIiEES1_IS3_SaIS3_EEEdeEv>
  402032:	48 8d bc 24 d8 03 00 	lea    0x3d8(%rsp),%rdi
  402039:	00 
  40203a:	48 89 c6             	mov    %rax,%rsi
  40203d:	e8 ee 1c 00 00       	callq  403d30 <_ZNSt6vectorIiSaIiEEC2ERKS1_>
  402042:	eb 00                	jmp    402044 <_ZN8Solution16networkDelayTimeERSt6vectorIS0_IiSaIiEESaIS2_EEii+0x1f4>
  402044:	31 c0                	xor    %eax,%eax
  402046:	89 c6                	mov    %eax,%esi
  402048:	48 8d 8c 24 d8 03 00 	lea    0x3d8(%rsp),%rcx
  40204f:	00 
/home/hoss/Documents/algorithms/server_layer/server/multi_threader.cpp:686
  402050:	48 89 cf             	mov    %rcx,%rdi
  402053:	48 89 8c 24 c8 00 00 	mov    %rcx,0xc8(%rsp)
  40205a:	00 
  40205b:	e8 f0 1d 00 00       	callq  403e50 <_ZNSt6vectorIiSaIiEEixEm>
  402060:	48 63 30             	movslq (%rax),%rsi
  402063:	48 8d bc 24 30 04 00 	lea    0x430(%rsp),%rdi
  40206a:	00 
  40206b:	e8 c0 1d 00 00       	callq  403e30 <_ZNSt6vectorIS_ISt4pairIiiESaIS1_EESaIS3_EEixEm>
  402070:	be 01 00 00 00       	mov    $0x1,%esi
  402075:	48 8b bc 24 c8 00 00 	mov    0xc8(%rsp),%rdi
  40207c:	00 
  40207d:	48 89 84 24 c0 00 00 	mov    %rax,0xc0(%rsp)
  402084:	00 
  402085:	e8 c6 1d 00 00       	callq  403e50 <_ZNSt6vectorIiSaIiEEixEm>
  40208a:	be 02 00 00 00       	mov    $0x2,%esi
  40208f:	48 8b bc 24 c8 00 00 	mov    0xc8(%rsp),%rdi
  402096:	00 
  402097:	48 89 84 24 b8 00 00 	mov    %rax,0xb8(%rsp)
  40209e:	00 
  40209f:	e8 ac 1d 00 00       	callq  403e50 <_ZNSt6vectorIiSaIiEEixEm>
  4020a4:	48 8b bc 24 b8 00 00 	mov    0xb8(%rsp),%rdi
  4020ab:	00 
  4020ac:	48 89 c6             	mov    %rax,%rsi
  4020af:	e8 fc 1d 00 00       	callq  403eb0 <_ZSt9make_pairIRiS0_ESt4pairINSt17__decay_and_stripIT_E6__typeENS2_IT0_E6__typeEEOS3_OS6_>
  4020b4:	48 89 84 24 b0 00 00 	mov    %rax,0xb0(%rsp)
  4020bb:	00 
  4020bc:	eb 00                	jmp    4020be <_ZN8Solution16networkDelayTimeERSt6vectorIS0_IiSaIiEESaIS2_EEii+0x26e>
  4020be:	48 8b 84 24 b0 00 00 	mov    0xb0(%rsp),%rax
  4020c5:	00 
  4020c6:	48 89 84 24 d0 03 00 	mov    %rax,0x3d0(%rsp)
  4020cd:	00 
  4020ce:	48 8d b4 24 d0 03 00 	lea    0x3d0(%rsp),%rsi
  4020d5:	00 
  4020d6:	48 8b bc 24 c0 00 00 	mov    0xc0(%rsp),%rdi
  4020dd:	00 
  4020de:	e8 8d 1d 00 00       	callq  403e70 <_ZNSt6vectorISt4pairIiiESaIS1_EE9push_backEOS1_>
  4020e3:	eb 00                	jmp    4020e5 <_ZN8Solution16networkDelayTimeERSt6vectorIS0_IiSaIiEESaIS2_EEii+0x295>
  4020e5:	31 c0                	xor    %eax,%eax
  4020e7:	89 c6                	mov    %eax,%esi
  4020e9:	48 8d 8c 24 d8 03 00 	lea    0x3d8(%rsp),%rcx
  4020f0:	00 
/home/hoss/Documents/algorithms/server_layer/server/multi_threader.cpp:687
  4020f1:	48 89 cf             	mov    %rcx,%rdi
  4020f4:	48 89 8c 24 a8 00 00 	mov    %rcx,0xa8(%rsp)
  4020fb:	00 
  4020fc:	e8 4f 1d 00 00       	callq  403e50 <_ZNSt6vectorIiSaIiEEixEm>
  402101:	48 63 30             	movslq (%rax),%rsi
  402104:	bf 90 16 61 00       	mov    $0x611690,%edi
  402109:	e8 f2 1d 00 00       	callq  403f00 <_ZNSt6vectorIS_IS_IiSaIiEESaIS1_EESaIS3_EEixEm>
  40210e:	be 01 00 00 00       	mov    $0x1,%esi
  402113:	48 8b bc 24 a8 00 00 	mov    0xa8(%rsp),%rdi
  40211a:	00 
  40211b:	48 89 84 24 a0 00 00 	mov    %rax,0xa0(%rsp)
  402122:	00 
  402123:	e8 28 1d 00 00       	callq  403e50 <_ZNSt6vectorIiSaIiEEixEm>
  402128:	8b 10                	mov    (%rax),%edx
  40212a:	89 94 24 a0 03 00 00 	mov    %edx,0x3a0(%rsp)
  402131:	be 02 00 00 00       	mov    $0x2,%esi
  402136:	48 8b bc 24 a8 00 00 	mov    0xa8(%rsp),%rdi
  40213d:	00 
  40213e:	e8 0d 1d 00 00       	callq  403e50 <_ZNSt6vectorIiSaIiEEixEm>
  402143:	8b 10                	mov    (%rax),%edx
  402145:	89 94 24 a4 03 00 00 	mov    %edx,0x3a4(%rsp)
  40214c:	48 8d 84 24 a0 03 00 	lea    0x3a0(%rsp),%rax
  402153:	00 
  402154:	48 89 84 24 a8 03 00 	mov    %rax,0x3a8(%rsp)
  40215b:	00 
  40215c:	48 c7 84 24 b0 03 00 	movq   $0x2,0x3b0(%rsp)
  402163:	00 02 00 00 00 
  402168:	48 8d 84 24 98 03 00 	lea    0x398(%rsp),%rax
  40216f:	00 
  402170:	48 89 c7             	mov    %rax,%rdi
  402173:	48 89 84 24 98 00 00 	mov    %rax,0x98(%rsp)
  40217a:	00 
  40217b:	e8 40 fa ff ff       	callq  401bc0 <_ZNSaIiEC2Ev>
  402180:	48 8b b4 24 a8 03 00 	mov    0x3a8(%rsp),%rsi
  402187:	00 
  402188:	48 8b 94 24 b0 03 00 	mov    0x3b0(%rsp),%rdx
  40218f:	00 
  402190:	48 8d bc 24 b8 03 00 	lea    0x3b8(%rsp),%rdi
  402197:	00 
  402198:	48 8b 8c 24 98 00 00 	mov    0x98(%rsp),%rcx
  40219f:	00 
  4021a0:	e8 3b fa ff ff       	callq  401be0 <_ZNSt6vectorIiSaIiEEC2ESt16initializer_listIiERKS0_>
  4021a5:	eb 00                	jmp    4021a7 <_ZN8Solution16networkDelayTimeERSt6vectorIS0_IiSaIiEESaIS2_EEii+0x357>
  4021a7:	48 8d b4 24 b8 03 00 	lea    0x3b8(%rsp),%rsi
  4021ae:	00 
  4021af:	48 8b bc 24 a0 00 00 	mov    0xa0(%rsp),%rdi
  4021b6:	00 
  4021b7:	e8 64 1d 00 00       	callq  403f20 <_ZNSt6vectorIS_IiSaIiEESaIS1_EE12emplace_backIJS1_EEERS1_DpOT_>
  4021bc:	eb 00                	jmp    4021be <_ZN8Solution16networkDelayTimeERSt6vectorIS0_IiSaIiEESaIS2_EEii+0x36e>
  4021be:	48 8d bc 24 b8 03 00 	lea    0x3b8(%rsp),%rdi
  4021c5:	00 
  4021c6:	e8 a5 fa ff ff       	callq  401c70 <_ZNSt6vectorIiSaIiEED2Ev>
  4021cb:	48 8d bc 24 98 03 00 	lea    0x398(%rsp),%rdi
  4021d2:	00 
  4021d3:	e8 18 fb ff ff       	callq  401cf0 <_ZNSaIiED2Ev>
/home/hoss/Documents/algorithms/server_layer/server/multi_threader.cpp:688
  4021d8:	48 8d bc 24 d8 03 00 	lea    0x3d8(%rsp),%rdi
  4021df:	00 
  4021e0:	e8 8b fa ff ff       	callq  401c70 <_ZNSt6vectorIiSaIiEED2Ev>
/home/hoss/Documents/algorithms/server_layer/server/multi_threader.cpp:685
  4021e5:	48 8d bc 24 f8 03 00 	lea    0x3f8(%rsp),%rdi
  4021ec:	00 
  4021ed:	e8 de 1d 00 00       	callq  403fd0 <_ZN9__gnu_cxx17__normal_iteratorIPSt6vectorIiSaIiEES1_IS3_SaIS3_EEEppEv>
  4021f2:	e9 10 fe ff ff       	jmpq   402007 <_ZN8Solution16networkDelayTimeERSt6vectorIS0_IiSaIiEESaIS2_EEii+0x1b7>
/home/hoss/Documents/algorithms/server_layer/server/multi_threader.cpp:805
  4021f7:	48 89 84 24 50 04 00 	mov    %rax,0x450(%rsp)
  4021fe:	00 
  4021ff:	89 94 24 4c 04 00 00 	mov    %edx,0x44c(%rsp)
/home/hoss/Documents/algorithms/server_layer/server/multi_threader.cpp:681
  402206:	48 8d bc 24 58 04 00 	lea    0x458(%rsp),%rdi
  40220d:	00 
  40220e:	e8 ed 18 00 00       	callq  403b00 <_ZNSaIbED2Ev>
  402213:	e9 49 08 00 00       	jmpq   402a61 <_ZN8Solution16networkDelayTimeERSt6vectorIS0_IiSaIiEESaIS2_EEii+0xc11>
/home/hoss/Documents/algorithms/server_layer/server/multi_threader.cpp:805
  402218:	48 89 84 24 50 04 00 	mov    %rax,0x450(%rsp)
  40221f:	00 
  402220:	89 94 24 4c 04 00 00 	mov    %edx,0x44c(%rsp)
/home/hoss/Documents/algorithms/server_layer/server/multi_threader.cpp:682
  402227:	48 8d bc 24 08 04 00 	lea    0x408(%rsp),%rdi
  40222e:	00 
  40222f:	e8 ac 19 00 00       	callq  403be0 <_ZNSaISt6vectorISt4pairIiiESaIS1_EEED2Ev>
  402234:	48 8d bc 24 10 04 00 	lea    0x410(%rsp),%rdi
  40223b:	00 
  40223c:	e8 bf 19 00 00       	callq  403c00 <_ZNSt6vectorISt4pairIiiESaIS1_EED2Ev>
  402241:	e9 0e 08 00 00       	jmpq   402a54 <_ZN8Solution16networkDelayTimeERSt6vectorIS0_IiSaIiEESaIS2_EEii+0xc04>
/home/hoss/Documents/algorithms/server_layer/server/multi_threader.cpp:805
  402246:	48 89 84 24 50 04 00 	mov    %rax,0x450(%rsp)
  40224d:	00 
  40224e:	89 94 24 4c 04 00 00 	mov    %edx,0x44c(%rsp)
  402255:	e9 ed 07 00 00       	jmpq   402a47 <_ZN8Solution16networkDelayTimeERSt6vectorIS0_IiSaIiEESaIS2_EEii+0xbf7>
  40225a:	48 89 84 24 50 04 00 	mov    %rax,0x450(%rsp)
  402261:	00 
  402262:	89 94 24 4c 04 00 00 	mov    %edx,0x44c(%rsp)
  402269:	eb 3a                	jmp    4022a5 <_ZN8Solution16networkDelayTimeERSt6vectorIS0_IiSaIiEESaIS2_EEii+0x455>
  40226b:	48 89 84 24 50 04 00 	mov    %rax,0x450(%rsp)
  402272:	00 
  402273:	89 94 24 4c 04 00 00 	mov    %edx,0x44c(%rsp)
  40227a:	eb 1c                	jmp    402298 <_ZN8Solution16networkDelayTimeERSt6vectorIS0_IiSaIiEESaIS2_EEii+0x448>
  40227c:	48 89 84 24 50 04 00 	mov    %rax,0x450(%rsp)
  402283:	00 
  402284:	89 94 24 4c 04 00 00 	mov    %edx,0x44c(%rsp)
/home/hoss/Documents/algorithms/server_layer/server/multi_threader.cpp:687
  40228b:	48 8d bc 24 b8 03 00 	lea    0x3b8(%rsp),%rdi
  402292:	00 
  402293:	e8 d8 f9 ff ff       	callq  401c70 <_ZNSt6vectorIiSaIiEED2Ev>
  402298:	48 8d bc 24 98 03 00 	lea    0x398(%rsp),%rdi
  40229f:	00 
  4022a0:	e8 4b fa ff ff       	callq  401cf0 <_ZNSaIiED2Ev>
/home/hoss/Documents/algorithms/server_layer/server/multi_threader.cpp:688
  4022a5:	48 8d bc 24 d8 03 00 	lea    0x3d8(%rsp),%rdi
  4022ac:	00 
  4022ad:	e8 be f9 ff ff       	callq  401c70 <_ZNSt6vectorIiSaIiEED2Ev>
  4022b2:	e9 90 07 00 00       	jmpq   402a47 <_ZN8Solution16networkDelayTimeERSt6vectorIS0_IiSaIiEESaIS2_EEii+0xbf7>
/home/hoss/Documents/algorithms/server_layer/server/multi_threader.cpp:690
  4022b7:	c7 84 24 94 03 00 00 	movl   $0x0,0x394(%rsp)
  4022be:	00 00 00 00 
/home/hoss/Documents/algorithms/server_layer/server/multi_threader.cpp:696
  4022c2:	48 8b 84 24 98 04 00 	mov    0x498(%rsp),%rax
  4022c9:	00 
  4022ca:	48 89 84 24 b8 02 00 	mov    %rax,0x2b8(%rsp)
  4022d1:	00 
  4022d2:	48 8b bc 24 b8 02 00 	mov    0x2b8(%rsp),%rdi
  4022d9:	00 
  4022da:	e8 a1 19 00 00       	callq  403c80 <_ZNSt6vectorIS_IiSaIiEESaIS1_EE5beginEv>
  4022df:	48 89 84 24 b0 02 00 	mov    %rax,0x2b0(%rsp)
  4022e6:	00 
  4022e7:	48 8b bc 24 b8 02 00 	mov    0x2b8(%rsp),%rdi
  4022ee:	00 
  4022ef:	e8 bc 19 00 00       	callq  403cb0 <_ZNSt6vectorIS_IiSaIiEESaIS1_EE3endEv>
  4022f4:	48 89 84 24 a8 02 00 	mov    %rax,0x2a8(%rsp)
  4022fb:	00 
  4022fc:	48 8d bc 24 b0 02 00 	lea    0x2b0(%rsp),%rdi
  402303:	00 
  402304:	48 8d b4 24 a8 02 00 	lea    0x2a8(%rsp),%rsi
  40230b:	00 
  40230c:	e8 cf 19 00 00       	callq  403ce0 <_ZN9__gnu_cxxneIPSt6vectorIiSaIiEES1_IS3_SaIS3_EEEEbRKNS_17__normal_iteratorIT_T0_EESC_>
  402311:	a8 01                	test   $0x1,%al
  402313:	75 05                	jne    40231a <_ZN8Solution16networkDelayTimeERSt6vectorIS0_IiSaIiEESaIS2_EEii+0x4ca>
  402315:	e9 e7 00 00 00       	jmpq   402401 <_ZN8Solution16networkDelayTimeERSt6vectorIS0_IiSaIiEESaIS2_EEii+0x5b1>
  40231a:	48 8d bc 24 b0 02 00 	lea    0x2b0(%rsp),%rdi
  402321:	00 
  402322:	e8 f9 19 00 00       	callq  403d20 <_ZNK9__gnu_cxx17__normal_iteratorIPSt6vectorIiSaIiEES1_IS3_SaIS3_EEEdeEv>
  402327:	48 8d bc 24 90 02 00 	lea    0x290(%rsp),%rdi
  40232e:	00 
  40232f:	48 89 c6             	mov    %rax,%rsi
  402332:	e8 f9 19 00 00       	callq  403d30 <_ZNSt6vectorIiSaIiEEC2ERKS1_>
  402337:	eb 00                	jmp    402339 <_ZN8Solution16networkDelayTimeERSt6vectorIS0_IiSaIiEESaIS2_EEii+0x4e9>
  402339:	31 c0                	xor    %eax,%eax
  40233b:	89 c6                	mov    %eax,%esi
/home/hoss/Documents/algorithms/server_layer/server/multi_threader.cpp:697
  40233d:	48 8d bc 24 90 02 00 	lea    0x290(%rsp),%rdi
  402344:	00 
  402345:	e8 06 1b 00 00       	callq  403e50 <_ZNSt6vectorIiSaIiEEixEm>
  40234a:	48 63 30             	movslq (%rax),%rsi
  40234d:	48 8d bc 24 30 04 00 	lea    0x430(%rsp),%rdi
  402354:	00 
  402355:	e8 d6 1a 00 00       	callq  403e30 <_ZNSt6vectorIS_ISt4pairIiiESaIS1_EESaIS3_EEixEm>
  40235a:	48 89 c7             	mov    %rax,%rdi
  40235d:	e8 8e 1c 00 00       	callq  403ff0 <_ZNKSt6vectorISt4pairIiiESaIS1_EE4sizeEv>
  402362:	31 c9                	xor    %ecx,%ecx
  402364:	89 ce                	mov    %ecx,%esi
  402366:	48 8d bc 24 90 02 00 	lea    0x290(%rsp),%rdi
  40236d:	00 
  40236e:	89 84 24 94 00 00 00 	mov    %eax,0x94(%rsp)
  402375:	e8 d6 1a 00 00       	callq  403e50 <_ZNSt6vectorIiSaIiEEixEm>
  40237a:	31 c9                	xor    %ecx,%ecx
  40237c:	89 ce                	mov    %ecx,%esi
  40237e:	48 63 00             	movslq (%rax),%rax
  402381:	8b 8c 24 94 00 00 00 	mov    0x94(%rsp),%ecx
  402388:	89 0c 85 a8 16 61 00 	mov    %ecx,0x6116a8(,%rax,4)
/home/hoss/Documents/algorithms/server_layer/server/multi_threader.cpp:698
  40238f:	48 8d bc 24 90 02 00 	lea    0x290(%rsp),%rdi
  402396:	00 
  402397:	e8 b4 1a 00 00       	callq  403e50 <_ZNSt6vectorIiSaIiEEixEm>
  40239c:	48 63 30             	movslq (%rax),%rsi
  40239f:	48 8d bc 24 30 04 00 	lea    0x430(%rsp),%rdi
  4023a6:	00 
  4023a7:	e8 84 1a 00 00       	callq  403e30 <_ZNSt6vectorIS_ISt4pairIiiESaIS1_EESaIS3_EEixEm>
  4023ac:	48 89 c7             	mov    %rax,%rdi
  4023af:	e8 3c 1c 00 00       	callq  403ff0 <_ZNKSt6vectorISt4pairIiiESaIS1_EE4sizeEv>
  4023b4:	31 c9                	xor    %ecx,%ecx
  4023b6:	89 ce                	mov    %ecx,%esi
  4023b8:	48 8d bc 24 90 02 00 	lea    0x290(%rsp),%rdi
  4023bf:	00 
  4023c0:	89 84 24 90 00 00 00 	mov    %eax,0x90(%rsp)
  4023c7:	e8 84 1a 00 00       	callq  403e50 <_ZNSt6vectorIiSaIiEEixEm>
  4023cc:	8b 08                	mov    (%rax),%ecx
  4023ce:	83 e9 01             	sub    $0x1,%ecx
  4023d1:	48 63 c1             	movslq %ecx,%rax
  4023d4:	8b 8c 24 90 00 00 00 	mov    0x90(%rsp),%ecx
  4023db:	89 8c 84 c0 02 00 00 	mov    %ecx,0x2c0(%rsp,%rax,4)
/home/hoss/Documents/algorithms/server_layer/server/multi_threader.cpp:701
  4023e2:	48 8d bc 24 90 02 00 	lea    0x290(%rsp),%rdi
  4023e9:	00 
  4023ea:	e8 81 f8 ff ff       	callq  401c70 <_ZNSt6vectorIiSaIiEED2Ev>
/home/hoss/Documents/algorithms/server_layer/server/multi_threader.cpp:696
  4023ef:	48 8d bc 24 b0 02 00 	lea    0x2b0(%rsp),%rdi
  4023f6:	00 
  4023f7:	e8 d4 1b 00 00       	callq  403fd0 <_ZN9__gnu_cxx17__normal_iteratorIPSt6vectorIiSaIiEES1_IS3_SaIS3_EEEppEv>
  4023fc:	e9 fb fe ff ff       	jmpq   4022fc <_ZN8Solution16networkDelayTimeERSt6vectorIS0_IiSaIiEESaIS2_EEii+0x4ac>
/home/hoss/Documents/algorithms/server_layer/server/multi_threader.cpp:703
  402401:	48 8d 84 24 c0 02 00 	lea    0x2c0(%rsp),%rax
  402408:	00 
  402409:	48 89 84 24 88 02 00 	mov    %rax,0x288(%rsp)
  402410:	00 
  402411:	48 8b 84 24 88 02 00 	mov    0x288(%rsp),%rax
  402418:	00 
  402419:	48 89 84 24 80 02 00 	mov    %rax,0x280(%rsp)
  402420:	00 
  402421:	48 8b 84 24 88 02 00 	mov    0x288(%rsp),%rax
  402428:	00 
  402429:	48 05 c8 00 00 00    	add    $0xc8,%rax
  40242f:	48 89 84 24 78 02 00 	mov    %rax,0x278(%rsp)
  402436:	00 
  402437:	48 8b 84 24 80 02 00 	mov    0x280(%rsp),%rax
  40243e:	00 
  40243f:	48 3b 84 24 78 02 00 	cmp    0x278(%rsp),%rax
  402446:	00 
  402447:	74 3c                	je     402485 <_ZN8Solution16networkDelayTimeERSt6vectorIS0_IiSaIiEESaIS2_EEii+0x635>
  402449:	48 8b 84 24 80 02 00 	mov    0x280(%rsp),%rax
  402450:	00 
  402451:	8b 08                	mov    (%rax),%ecx
  402453:	89 8c 24 74 02 00 00 	mov    %ecx,0x274(%rsp)
/home/hoss/Documents/algorithms/server_layer/server/multi_threader.cpp:704
  40245a:	8b 8c 24 74 02 00 00 	mov    0x274(%rsp),%ecx
  402461:	03 8c 24 94 03 00 00 	add    0x394(%rsp),%ecx
  402468:	89 8c 24 94 03 00 00 	mov    %ecx,0x394(%rsp)
/home/hoss/Documents/algorithms/server_layer/server/multi_threader.cpp:703
  40246f:	48 8b 84 24 80 02 00 	mov    0x280(%rsp),%rax
  402476:	00 
  402477:	48 83 c0 04          	add    $0x4,%rax
  40247b:	48 89 84 24 80 02 00 	mov    %rax,0x280(%rsp)
  402482:	00 
  402483:	eb b2                	jmp    402437 <_ZN8Solution16networkDelayTimeERSt6vectorIS0_IiSaIiEESaIS2_EEii+0x5e7>
/home/hoss/Documents/algorithms/server_layer/server/multi_threader.cpp:707
  402485:	8b 84 24 94 03 00 00 	mov    0x394(%rsp),%eax
  40248c:	01 c0                	add    %eax,%eax
  40248e:	89 84 24 94 03 00 00 	mov    %eax,0x394(%rsp)
  402495:	48 8d bc 24 68 02 00 	lea    0x268(%rsp),%rdi
  40249c:	00 
  40249d:	be 08 00 00 00       	mov    $0x8,%esi
/home/hoss/Documents/algorithms/server_layer/server/multi_threader.cpp:709
  4024a2:	e8 69 1b 00 00       	callq  404010 <_ZSt11make_uniqueIA_St6atomicIiEENSt9_MakeUniqIT_E7__arrayEm>
  4024a7:	eb 00                	jmp    4024a9 <_ZN8Solution16networkDelayTimeERSt6vectorIS0_IiSaIiEESaIS2_EEii+0x659>
  4024a9:	48 8b 84 24 f8 00 00 	mov    0xf8(%rsp),%rax
  4024b0:	00 
  4024b1:	48 05 30 9d 00 00    	add    $0x9d30,%rax
  4024b7:	48 89 c7             	mov    %rax,%rdi
  4024ba:	48 8d b4 24 68 02 00 	lea    0x268(%rsp),%rsi
  4024c1:	00 
  4024c2:	e8 c9 1b 00 00       	callq  404090 <_ZNSt10unique_ptrIA_St6atomicIiESt14default_deleteIS2_EEaSEOS5_>
  4024c7:	48 8d bc 24 68 02 00 	lea    0x268(%rsp),%rdi
  4024ce:	00 
  4024cf:	48 89 84 24 88 00 00 	mov    %rax,0x88(%rsp)
  4024d6:	00 
  4024d7:	e8 24 1c 00 00       	callq  404100 <_ZNSt10unique_ptrIA_St6atomicIiESt14default_deleteIS2_EED2Ev>
/home/hoss/Documents/algorithms/server_layer/server/multi_threader.cpp:711
  4024dc:	c7 84 24 64 02 00 00 	movl   $0x0,0x264(%rsp)
  4024e3:	00 00 00 00 
/home/hoss/Documents/algorithms/server_layer/server/multi_threader.cpp:712
  4024e7:	c7 84 24 60 02 00 00 	movl   $0x1,0x260(%rsp)
  4024ee:	01 00 00 00 
/home/hoss/Documents/algorithms/server_layer/server/multi_threader.cpp:714
  4024f2:	c7 84 24 5c 02 00 00 	movl   $0x1,0x25c(%rsp)
  4024f9:	01 00 00 00 
  4024fd:	48 63 84 24 5c 02 00 	movslq 0x25c(%rsp),%rax
  402504:	00 
  402505:	48 8d bc 24 30 04 00 	lea    0x430(%rsp),%rdi
  40250c:	00 
  40250d:	48 89 84 24 80 00 00 	mov    %rax,0x80(%rsp)
  402514:	00 
  402515:	e8 66 1c 00 00       	callq  404180 <_ZNKSt6vectorIS_ISt4pairIiiESaIS1_EESaIS3_EE4sizeEv>
  40251a:	48 8b 8c 24 80 00 00 	mov    0x80(%rsp),%rcx
  402521:	00 
  402522:	48 39 c1             	cmp    %rax,%rcx
  402525:	0f 83 0e 01 00 00    	jae    402639 <_ZN8Solution16networkDelayTimeERSt6vectorIS0_IiSaIiEESaIS2_EEii+0x7e9>
/home/hoss/Documents/algorithms/server_layer/server/multi_threader.cpp:715
  40252b:	8b 84 24 64 02 00 00 	mov    0x264(%rsp),%eax
  402532:	8b 8c 24 60 02 00 00 	mov    0x260(%rsp),%ecx
  402539:	89 ca                	mov    %ecx,%edx
  40253b:	89 04 95 00 b5 61 00 	mov    %eax,0x61b500(,%rdx,4)
/home/hoss/Documents/algorithms/server_layer/server/multi_threader.cpp:716
  402542:	c7 84 24 58 02 00 00 	movl   $0x0,0x258(%rsp)
  402549:	00 00 00 00 
  40254d:	48 63 84 24 58 02 00 	movslq 0x258(%rsp),%rax
  402554:	00 
  402555:	48 63 b4 24 5c 02 00 	movslq 0x25c(%rsp),%rsi
  40255c:	00 
  40255d:	48 8d bc 24 30 04 00 	lea    0x430(%rsp),%rdi
  402564:	00 
  402565:	48 89 44 24 78       	mov    %rax,0x78(%rsp)
  40256a:	e8 c1 18 00 00       	callq  403e30 <_ZNSt6vectorIS_ISt4pairIiiESaIS1_EESaIS3_EEixEm>
  40256f:	48 89 c7             	mov    %rax,%rdi
  402572:	e8 79 1a 00 00       	callq  403ff0 <_ZNKSt6vectorISt4pairIiiESaIS1_EE4sizeEv>
  402577:	48 8b 4c 24 78       	mov    0x78(%rsp),%rcx
  40257c:	48 39 c1             	cmp    %rax,%rcx
  40257f:	0f 83 8d 00 00 00    	jae    402612 <_ZN8Solution16networkDelayTimeERSt6vectorIS0_IiSaIiEESaIS2_EEii+0x7c2>
/home/hoss/Documents/algorithms/server_layer/server/multi_threader.cpp:717
  402585:	48 63 b4 24 5c 02 00 	movslq 0x25c(%rsp),%rsi
  40258c:	00 
  40258d:	48 8d bc 24 30 04 00 	lea    0x430(%rsp),%rdi
  402594:	00 
  402595:	e8 96 18 00 00       	callq  403e30 <_ZNSt6vectorIS_ISt4pairIiiESaIS1_EESaIS3_EEixEm>
  40259a:	48 63 b4 24 58 02 00 	movslq 0x258(%rsp),%rsi
  4025a1:	00 
  4025a2:	48 89 c7             	mov    %rax,%rdi
  4025a5:	e8 06 1c 00 00       	callq  4041b0 <_ZNSt6vectorISt4pairIiiESaIS1_EEixEm>
  4025aa:	48 8b 00             	mov    (%rax),%rax
  4025ad:	48 89 84 24 50 02 00 	mov    %rax,0x250(%rsp)
  4025b4:	00 
/home/hoss/Documents/algorithms/server_layer/server/multi_threader.cpp:719
  4025b5:	8b 8c 24 50 02 00 00 	mov    0x250(%rsp),%ecx
  4025bc:	8b 94 24 64 02 00 00 	mov    0x264(%rsp),%edx
  4025c3:	89 d0                	mov    %edx,%eax
  4025c5:	89 0c 85 80 17 61 00 	mov    %ecx,0x611780(,%rax,4)
/home/hoss/Documents/algorithms/server_layer/server/multi_threader.cpp:720
  4025cc:	8b 8c 24 54 02 00 00 	mov    0x254(%rsp),%ecx
  4025d3:	8b 94 24 64 02 00 00 	mov    0x264(%rsp),%edx
  4025da:	81 c2 a0 13 00 00    	add    $0x13a0,%edx
  4025e0:	89 d2                	mov    %edx,%edx
  4025e2:	89 d0                	mov    %edx,%eax
  4025e4:	89 0c 85 80 17 61 00 	mov    %ecx,0x611780(,%rax,4)
/home/hoss/Documents/algorithms/server_layer/server/multi_threader.cpp:722
  4025eb:	8b 8c 24 64 02 00 00 	mov    0x264(%rsp),%ecx
  4025f2:	83 c1 01             	add    $0x1,%ecx
  4025f5:	89 8c 24 64 02 00 00 	mov    %ecx,0x264(%rsp)
/home/hoss/Documents/algorithms/server_layer/server/multi_threader.cpp:716
  4025fc:	8b 84 24 58 02 00 00 	mov    0x258(%rsp),%eax
  402603:	83 c0 01             	add    $0x1,%eax
  402606:	89 84 24 58 02 00 00 	mov    %eax,0x258(%rsp)
  40260d:	e9 3b ff ff ff       	jmpq   40254d <_ZN8Solution16networkDelayTimeERSt6vectorIS0_IiSaIiEESaIS2_EEii+0x6fd>
/home/hoss/Documents/algorithms/server_layer/server/multi_threader.cpp:724
  402612:	8b 84 24 60 02 00 00 	mov    0x260(%rsp),%eax
  402619:	83 c0 01             	add    $0x1,%eax
  40261c:	89 84 24 60 02 00 00 	mov    %eax,0x260(%rsp)
/home/hoss/Documents/algorithms/server_layer/server/multi_threader.cpp:714
  402623:	8b 84 24 5c 02 00 00 	mov    0x25c(%rsp),%eax
  40262a:	83 c0 01             	add    $0x1,%eax
  40262d:	89 84 24 5c 02 00 00 	mov    %eax,0x25c(%rsp)
  402634:	e9 c4 fe ff ff       	jmpq   4024fd <_ZN8Solution16networkDelayTimeERSt6vectorIS0_IiSaIiEESaIS2_EEii+0x6ad>
/home/hoss/Documents/algorithms/server_layer/server/multi_threader.cpp:727
  402639:	48 63 84 24 90 04 00 	movslq 0x490(%rsp),%rax
  402640:	00 
  402641:	48 8b 8c 24 f8 00 00 	mov    0xf8(%rsp),%rcx
  402648:	00 
  402649:	c7 44 81 04 00 00 00 	movl   $0x0,0x4(%rcx,%rax,4)
  402650:	00 
/home/hoss/Documents/algorithms/server_layer/server/multi_threader.cpp:729
  402651:	48 81 c1 70 9d 00 00 	add    $0x9d70,%rcx
  402658:	48 63 b4 24 90 04 00 	movslq 0x490(%rsp),%rsi
  40265f:	00 
  402660:	48 89 cf             	mov    %rcx,%rdi
  402663:	e8 e8 17 00 00       	callq  403e50 <_ZNSt6vectorIiSaIiEEixEm>
  402668:	c7 00 00 00 00 00    	movl   $0x0,(%rax)
  40266e:	48 8d bc 24 00 02 00 	lea    0x200(%rsp),%rdi
  402675:	00 
/home/hoss/Documents/algorithms/server_layer/server/multi_threader.cpp:731
  402676:	e8 55 1b 00 00       	callq  4041d0 <_ZNSt5queueIiSt5dequeIiSaIiEEEC2IS2_vEEv>
  40267b:	eb 00                	jmp    40267d <_ZN8Solution16networkDelayTimeERSt6vectorIS0_IiSaIiEESaIS2_EEii+0x82d>
  40267d:	48 8d bc 24 00 02 00 	lea    0x200(%rsp),%rdi
  402684:	00 
  402685:	48 8d b4 24 90 04 00 	lea    0x490(%rsp),%rsi
  40268c:	00 
/home/hoss/Documents/algorithms/server_layer/server/multi_threader.cpp:732
  40268d:	e8 4e 1b 00 00       	callq  4041e0 <_ZNSt5queueIiSt5dequeIiSaIiEEE4pushERKi>
  402692:	eb 00                	jmp    402694 <_ZN8Solution16networkDelayTimeERSt6vectorIS0_IiSaIiEESaIS2_EEii+0x844>
  402694:	48 8b bc 24 f8 00 00 	mov    0xf8(%rsp),%rdi
  40269b:	00 
/home/hoss/Documents/algorithms/server_layer/server/multi_threader.cpp:763
  40269c:	e8 6f 1b 00 00       	callq  404210 <_ZN8Solution33Multiple_Processor_InitializationEv>
  4026a1:	eb 00                	jmp    4026a3 <_ZN8Solution16networkDelayTimeERSt6vectorIS0_IiSaIiEESaIS2_EEii+0x853>
/home/hoss/Documents/algorithms/server_layer/server/multi_threader.cpp:765
  4026a3:	be c0 b7 40 00       	mov    $0x40b7c0,%esi
  4026a8:	48 8d bc 24 30 01 00 	lea    0x130(%rsp),%rdi
  4026af:	00 
  4026b0:	ba cc 00 00 00       	mov    $0xcc,%edx
  4026b5:	e8 c6 eb ff ff       	callq  401280 <memcpy@plt>
/home/hoss/Documents/algorithms/server_layer/server/multi_threader.cpp:770
  4026ba:	c7 84 24 2c 01 00 00 	movl   $0x0,0x12c(%rsp)
  4026c1:	00 00 00 00 
/home/hoss/Documents/algorithms/server_layer/server/multi_threader.cpp:771
  4026c5:	bf a0 12 61 00       	mov    $0x6112a0,%edi
  4026ca:	48 8d b4 24 2c 01 00 	lea    0x12c(%rsp),%rsi
  4026d1:	00 
  4026d2:	48 89 44 24 70       	mov    %rax,0x70(%rsp)
  4026d7:	e8 e4 ed ff ff       	callq  4014c0 <_ZNSirsERi@plt>
  4026dc:	eb 00                	jmp    4026de <_ZN8Solution16networkDelayTimeERSt6vectorIS0_IiSaIiEESaIS2_EEii+0x88e>
/home/hoss/Documents/algorithms/server_layer/server/multi_threader.cpp:772
  4026de:	c7 84 24 28 01 00 00 	movl   $0x0,0x128(%rsp)
  4026e5:	00 00 00 00 
/home/hoss/Documents/algorithms/server_layer/server/multi_threader.cpp:773
  4026e9:	bf 80 11 61 00       	mov    $0x611180,%edi
  4026ee:	be 70 14 40 00       	mov    $0x401470,%esi
  4026f3:	e8 98 ed ff ff       	callq  401490 <_ZNSolsEPFRSoS_E@plt>
  4026f8:	eb 00                	jmp    4026fa <_ZN8Solution16networkDelayTimeERSt6vectorIS0_IiSaIiEESaIS2_EEii+0x8aa>
  4026fa:	48 8d 84 24 30 01 00 	lea    0x130(%rsp),%rax
  402701:	00 
/home/hoss/Documents/algorithms/server_layer/server/multi_threader.cpp:774
  402702:	48 83 c0 04          	add    $0x4,%rax
  402706:	48 89 84 24 20 01 00 	mov    %rax,0x120(%rsp)
  40270d:	00 
  40270e:	48 8b 84 24 f8 00 00 	mov    0xf8(%rsp),%rax
  402715:	00 
/home/hoss/Documents/algorithms/server_layer/server/multi_threader.cpp:776
  402716:	48 83 c0 04          	add    $0x4,%rax
  40271a:	48 83 c0 04          	add    $0x4,%rax
  40271e:	48 89 84 24 18 01 00 	mov    %rax,0x118(%rsp)
  402725:	00 
/home/hoss/Documents/algorithms/server_layer/server/multi_threader.cpp:777
  402726:	c6 84 24 17 01 00 00 	movb   $0x1,0x117(%rsp)
  40272d:	01 
  40272e:	48 8d 84 24 30 01 00 	lea    0x130(%rsp),%rax
  402735:	00 
/home/hoss/Documents/algorithms/server_layer/server/multi_threader.cpp:779
  402736:	48 8b 8c 24 20 01 00 	mov    0x120(%rsp),%rcx
  40273d:	00 
  40273e:	48 05 cc 00 00 00    	add    $0xcc,%rax
  402744:	48 39 c1             	cmp    %rax,%rcx
  402747:	73 63                	jae    4027ac <_ZN8Solution16networkDelayTimeERSt6vectorIS0_IiSaIiEESaIS2_EEii+0x95c>
/home/hoss/Documents/algorithms/server_layer/server/multi_threader.cpp:780
  402749:	48 8b 84 24 20 01 00 	mov    0x120(%rsp),%rax
  402750:	00 
  402751:	48 89 c1             	mov    %rax,%rcx
  402754:	48 83 c1 04          	add    $0x4,%rcx
  402758:	48 89 8c 24 20 01 00 	mov    %rcx,0x120(%rsp)
  40275f:	00 
  402760:	8b 10                	mov    (%rax),%edx
  402762:	48 8b 84 24 18 01 00 	mov    0x118(%rsp),%rax
  402769:	00 
  40276a:	48 89 c1             	mov    %rax,%rcx
  40276d:	48 83 c1 04          	add    $0x4,%rcx
  402771:	48 89 8c 24 18 01 00 	mov    %rcx,0x118(%rsp)
  402778:	00 
  402779:	8b 30                	mov    (%rax),%esi
  40277b:	39 f2                	cmp    %esi,%edx
  40277d:	74 2b                	je     4027aa <_ZN8Solution16networkDelayTimeERSt6vectorIS0_IiSaIiEESaIS2_EEii+0x95a>
/home/hoss/Documents/algorithms/server_layer/server/multi_threader.cpp:781
  40277f:	c6 84 24 17 01 00 00 	movb   $0x0,0x117(%rsp)
  402786:	00 
/home/hoss/Documents/algorithms/server_layer/server/multi_threader.cpp:782
  402787:	eb 21                	jmp    4027aa <_ZN8Solution16networkDelayTimeERSt6vectorIS0_IiSaIiEESaIS2_EEii+0x95a>
/home/hoss/Documents/algorithms/server_layer/server/multi_threader.cpp:805
  402789:	48 89 84 24 50 04 00 	mov    %rax,0x450(%rsp)
  402790:	00 
  402791:	89 94 24 4c 04 00 00 	mov    %edx,0x44c(%rsp)
  402798:	48 8d bc 24 00 02 00 	lea    0x200(%rsp),%rdi
  40279f:	00 
  4027a0:	e8 4b 1b 00 00       	callq  4042f0 <_ZNSt5queueIiSt5dequeIiSaIiEEED2Ev>
  4027a5:	e9 9d 02 00 00       	jmpq   402a47 <_ZN8Solution16networkDelayTimeERSt6vectorIS0_IiSaIiEESaIS2_EEii+0xbf7>
/home/hoss/Documents/algorithms/server_layer/server/multi_threader.cpp:779
  4027aa:	eb 82                	jmp    40272e <_ZN8Solution16networkDelayTimeERSt6vectorIS0_IiSaIiEESaIS2_EEii+0x8de>
/home/hoss/Documents/algorithms/server_layer/server/multi_threader.cpp:785
  4027ac:	bf 80 11 61 00       	mov    $0x611180,%edi
  4027b1:	be 0f b7 40 00       	mov    $0x40b70f,%esi
  4027b6:	e8 c5 eb ff ff       	callq  401380 <_ZStlsISt11char_traitsIcEERSt13basic_ostreamIcT_ES5_PKc@plt>
  4027bb:	48 89 44 24 68       	mov    %rax,0x68(%rsp)
  4027c0:	eb 00                	jmp    4027c2 <_ZN8Solution16networkDelayTimeERSt6vectorIS0_IiSaIiEESaIS2_EEii+0x972>
/home/hoss/Documents/algorithms/server_layer/server/multi_threader.cpp:786
  4027c2:	be 27 b7 40 00       	mov    $0x40b727,%esi
  4027c7:	48 8b 7c 24 68       	mov    0x68(%rsp),%rdi
  4027cc:	e8 af eb ff ff       	callq  401380 <_ZStlsISt11char_traitsIcEERSt13basic_ostreamIcT_ES5_PKc@plt>
  4027d1:	48 89 44 24 60       	mov    %rax,0x60(%rsp)
  4027d6:	eb 00                	jmp    4027d8 <_ZN8Solution16networkDelayTimeERSt6vectorIS0_IiSaIiEESaIS2_EEii+0x988>
  4027d8:	0f b6 84 24 17 01 00 	movzbl 0x117(%rsp),%eax
  4027df:	00 
  4027e0:	83 e0 01             	and    $0x1,%eax
  4027e3:	48 8b 7c 24 60       	mov    0x60(%rsp),%rdi
  4027e8:	89 c6                	mov    %eax,%esi
  4027ea:	e8 e1 ea ff ff       	callq  4012d0 <_ZNSolsEb@plt>
  4027ef:	48 89 44 24 58       	mov    %rax,0x58(%rsp)
  4027f4:	eb 00                	jmp    4027f6 <_ZN8Solution16networkDelayTimeERSt6vectorIS0_IiSaIiEESaIS2_EEii+0x9a6>
  4027f6:	be 70 14 40 00       	mov    $0x401470,%esi
  4027fb:	48 8b 7c 24 58       	mov    0x58(%rsp),%rdi
  402800:	e8 8b ec ff ff       	callq  401490 <_ZNSolsEPFRSoS_E@plt>
  402805:	eb 00                	jmp    402807 <_ZN8Solution16networkDelayTimeERSt6vectorIS0_IiSaIiEESaIS2_EEii+0x9b7>
/home/hoss/Documents/algorithms/server_layer/server/multi_threader.cpp:788
  402807:	c7 84 24 10 01 00 00 	movl   $0x1,0x110(%rsp)
  40280e:	01 00 00 00 
  402812:	8b 84 24 10 01 00 00 	mov    0x110(%rsp),%eax
  402819:	3b 84 24 94 04 00 00 	cmp    0x494(%rsp),%eax
  402820:	0f 8f 74 01 00 00    	jg     40299a <_ZN8Solution16networkDelayTimeERSt6vectorIS0_IiSaIiEESaIS2_EEii+0xb4a>
/home/hoss/Documents/algorithms/server_layer/server/multi_threader.cpp:791
  402826:	bf 80 11 61 00       	mov    $0x611180,%edi
  40282b:	be 2b b7 40 00       	mov    $0x40b72b,%esi
  402830:	e8 4b eb ff ff       	callq  401380 <_ZStlsISt11char_traitsIcEERSt13basic_ostreamIcT_ES5_PKc@plt>
  402835:	48 89 44 24 50       	mov    %rax,0x50(%rsp)
  40283a:	eb 00                	jmp    40283c <_ZN8Solution16networkDelayTimeERSt6vectorIS0_IiSaIiEESaIS2_EEii+0x9ec>
  40283c:	8b b4 24 10 01 00 00 	mov    0x110(%rsp),%esi
  402843:	48 8b 7c 24 50       	mov    0x50(%rsp),%rdi
  402848:	e8 c3 ea ff ff       	callq  401310 <_ZNSolsEi@plt>
  40284d:	48 89 44 24 48       	mov    %rax,0x48(%rsp)
  402852:	eb 00                	jmp    402854 <_ZN8Solution16networkDelayTimeERSt6vectorIS0_IiSaIiEESaIS2_EEii+0xa04>
  402854:	be 33 b7 40 00       	mov    $0x40b733,%esi
  402859:	48 8b 7c 24 48       	mov    0x48(%rsp),%rdi
  40285e:	e8 1d eb ff ff       	callq  401380 <_ZStlsISt11char_traitsIcEERSt13basic_ostreamIcT_ES5_PKc@plt>
  402863:	48 89 44 24 40       	mov    %rax,0x40(%rsp)
  402868:	eb 00                	jmp    40286a <_ZN8Solution16networkDelayTimeERSt6vectorIS0_IiSaIiEESaIS2_EEii+0xa1a>
/home/hoss/Documents/algorithms/server_layer/server/multi_threader.cpp:792
  40286a:	be 35 b7 40 00       	mov    $0x40b735,%esi
  40286f:	48 8b 7c 24 40       	mov    0x40(%rsp),%rdi
  402874:	e8 07 eb ff ff       	callq  401380 <_ZStlsISt11char_traitsIcEERSt13basic_ostreamIcT_ES5_PKc@plt>
  402879:	48 89 44 24 38       	mov    %rax,0x38(%rsp)
  40287e:	eb 00                	jmp    402880 <_ZN8Solution16networkDelayTimeERSt6vectorIS0_IiSaIiEESaIS2_EEii+0xa30>
  402880:	48 63 84 24 10 01 00 	movslq 0x110(%rsp),%rax
  402887:	00 
  402888:	8b 8c 84 30 01 00 00 	mov    0x130(%rsp,%rax,4),%ecx
  40288f:	48 8b 94 24 f8 00 00 	mov    0xf8(%rsp),%rdx
  402896:	00 
  402897:	8b 74 82 04          	mov    0x4(%rdx,%rax,4),%esi
  40289b:	29 f1                	sub    %esi,%ecx
  40289d:	40 0f 94 c7          	sete   %dil
  4028a1:	40 0f b6 f7          	movzbl %dil,%esi
  4028a5:	48 8b 7c 24 38       	mov    0x38(%rsp),%rdi
  4028aa:	89 4c 24 34          	mov    %ecx,0x34(%rsp)
  4028ae:	e8 1d ea ff ff       	callq  4012d0 <_ZNSolsEb@plt>
  4028b3:	48 89 44 24 28       	mov    %rax,0x28(%rsp)
  4028b8:	eb 00                	jmp    4028ba <_ZN8Solution16networkDelayTimeERSt6vectorIS0_IiSaIiEESaIS2_EEii+0xa6a>
  4028ba:	be 33 b7 40 00       	mov    $0x40b733,%esi
  4028bf:	48 8b 7c 24 28       	mov    0x28(%rsp),%rdi
  4028c4:	e8 b7 ea ff ff       	callq  401380 <_ZStlsISt11char_traitsIcEERSt13basic_ostreamIcT_ES5_PKc@plt>
  4028c9:	eb 00                	jmp    4028cb <_ZN8Solution16networkDelayTimeERSt6vectorIS0_IiSaIiEESaIS2_EEii+0xa7b>
/home/hoss/Documents/algorithms/server_layer/server/multi_threader.cpp:795
  4028cb:	48 63 84 24 10 01 00 	movslq 0x110(%rsp),%rax
  4028d2:	00 
  4028d3:	8b b4 84 30 01 00 00 	mov    0x130(%rsp,%rax,4),%esi
  4028da:	bf 80 11 61 00       	mov    $0x611180,%edi
  4028df:	e8 2c ea ff ff       	callq  401310 <_ZNSolsEi@plt>
  4028e4:	48 89 44 24 20       	mov    %rax,0x20(%rsp)
  4028e9:	eb 00                	jmp    4028eb <_ZN8Solution16networkDelayTimeERSt6vectorIS0_IiSaIiEESaIS2_EEii+0xa9b>
  4028eb:	be 47 b7 40 00       	mov    $0x40b747,%esi
  4028f0:	48 8b 7c 24 20       	mov    0x20(%rsp),%rdi
  4028f5:	e8 86 ea ff ff       	callq  401380 <_ZStlsISt11char_traitsIcEERSt13basic_ostreamIcT_ES5_PKc@plt>
  4028fa:	48 89 44 24 18       	mov    %rax,0x18(%rsp)
  4028ff:	eb 00                	jmp    402901 <_ZN8Solution16networkDelayTimeERSt6vectorIS0_IiSaIiEESaIS2_EEii+0xab1>
  402901:	48 63 84 24 10 01 00 	movslq 0x110(%rsp),%rax
  402908:	00 
  402909:	48 8b 8c 24 f8 00 00 	mov    0xf8(%rsp),%rcx
  402910:	00 
  402911:	8b 74 81 04          	mov    0x4(%rcx,%rax,4),%esi
  402915:	48 8b 7c 24 18       	mov    0x18(%rsp),%rdi
  40291a:	e8 11 eb ff ff       	callq  401430 <_ZNSolsEj@plt>
  40291f:	48 89 44 24 10       	mov    %rax,0x10(%rsp)
  402924:	eb 00                	jmp    402926 <_ZN8Solution16networkDelayTimeERSt6vectorIS0_IiSaIiEESaIS2_EEii+0xad6>
  402926:	be 33 b7 40 00       	mov    $0x40b733,%esi
  40292b:	48 8b 7c 24 10       	mov    0x10(%rsp),%rdi
  402930:	e8 4b ea ff ff       	callq  401380 <_ZStlsISt11char_traitsIcEERSt13basic_ostreamIcT_ES5_PKc@plt>
  402935:	eb 00                	jmp    402937 <_ZN8Solution16networkDelayTimeERSt6vectorIS0_IiSaIiEESaIS2_EEii+0xae7>
/home/hoss/Documents/algorithms/server_layer/server/multi_threader.cpp:797
  402937:	48 63 84 24 10 01 00 	movslq 0x110(%rsp),%rax
  40293e:	00 
  40293f:	48 8b 8c 24 f8 00 00 	mov    0xf8(%rsp),%rcx
  402946:	00 
  402947:	8b 54 81 04          	mov    0x4(%rcx,%rax,4),%edx
  40294b:	3b 94 24 28 01 00 00 	cmp    0x128(%rsp),%edx
  402952:	76 1a                	jbe    40296e <_ZN8Solution16networkDelayTimeERSt6vectorIS0_IiSaIiEESaIS2_EEii+0xb1e>
  402954:	48 63 84 24 10 01 00 	movslq 0x110(%rsp),%rax
  40295b:	00 
  40295c:	48 8b 8c 24 f8 00 00 	mov    0xf8(%rsp),%rcx
  402963:	00 
  402964:	8b 54 81 04          	mov    0x4(%rcx,%rax,4),%edx
  402968:	89 54 24 0c          	mov    %edx,0xc(%rsp)
  40296c:	eb 0b                	jmp    402979 <_ZN8Solution16networkDelayTimeERSt6vectorIS0_IiSaIiEESaIS2_EEii+0xb29>
  40296e:	8b 84 24 28 01 00 00 	mov    0x128(%rsp),%eax
  402975:	89 44 24 0c          	mov    %eax,0xc(%rsp)
  402979:	8b 44 24 0c          	mov    0xc(%rsp),%eax
  40297d:	89 84 24 28 01 00 00 	mov    %eax,0x128(%rsp)
/home/hoss/Documents/algorithms/server_layer/server/multi_threader.cpp:788
  402984:	8b 84 24 10 01 00 00 	mov    0x110(%rsp),%eax
  40298b:	83 c0 01             	add    $0x1,%eax
  40298e:	89 84 24 10 01 00 00 	mov    %eax,0x110(%rsp)
  402995:	e9 78 fe ff ff       	jmpq   402812 <_ZN8Solution16networkDelayTimeERSt6vectorIS0_IiSaIiEESaIS2_EEii+0x9c2>
/home/hoss/Documents/algorithms/server_layer/server/multi_threader.cpp:799
  40299a:	c7 84 24 0c 01 00 00 	movl   $0x0,0x10c(%rsp)
  4029a1:	00 00 00 00 
/home/hoss/Documents/algorithms/server_layer/server/multi_threader.cpp:800
  4029a5:	c7 84 24 08 01 00 00 	movl   $0x1,0x108(%rsp)
  4029ac:	01 00 00 00 
  4029b0:	8b 84 24 08 01 00 00 	mov    0x108(%rsp),%eax
  4029b7:	3b 84 24 94 04 00 00 	cmp    0x494(%rsp),%eax
  4029be:	7f 56                	jg     402a16 <_ZN8Solution16networkDelayTimeERSt6vectorIS0_IiSaIiEESaIS2_EEii+0xbc6>
/home/hoss/Documents/algorithms/server_layer/server/multi_threader.cpp:801
  4029c0:	48 63 84 24 08 01 00 	movslq 0x108(%rsp),%rax
  4029c7:	00 
  4029c8:	8b 8c 84 30 01 00 00 	mov    0x130(%rsp,%rax,4),%ecx
  4029cf:	3b 8c 24 0c 01 00 00 	cmp    0x10c(%rsp),%ecx
  4029d6:	7e 15                	jle    4029ed <_ZN8Solution16networkDelayTimeERSt6vectorIS0_IiSaIiEESaIS2_EEii+0xb9d>
  4029d8:	48 63 84 24 08 01 00 	movslq 0x108(%rsp),%rax
  4029df:	00 
  4029e0:	8b 8c 84 30 01 00 00 	mov    0x130(%rsp,%rax,4),%ecx
  4029e7:	89 4c 24 08          	mov    %ecx,0x8(%rsp)
  4029eb:	eb 0b                	jmp    4029f8 <_ZN8Solution16networkDelayTimeERSt6vectorIS0_IiSaIiEESaIS2_EEii+0xba8>
  4029ed:	8b 84 24 0c 01 00 00 	mov    0x10c(%rsp),%eax
  4029f4:	89 44 24 08          	mov    %eax,0x8(%rsp)
  4029f8:	8b 44 24 08          	mov    0x8(%rsp),%eax
  4029fc:	89 84 24 0c 01 00 00 	mov    %eax,0x10c(%rsp)
/home/hoss/Documents/algorithms/server_layer/server/multi_threader.cpp:800
  402a03:	8b 84 24 08 01 00 00 	mov    0x108(%rsp),%eax
  402a0a:	83 c0 01             	add    $0x1,%eax
  402a0d:	89 84 24 08 01 00 00 	mov    %eax,0x108(%rsp)
  402a14:	eb 9a                	jmp    4029b0 <_ZN8Solution16networkDelayTimeERSt6vectorIS0_IiSaIiEESaIS2_EEii+0xb60>
/home/hoss/Documents/algorithms/server_layer/server/multi_threader.cpp:805
  402a16:	48 8d bc 24 00 02 00 	lea    0x200(%rsp),%rdi
  402a1d:	00 
  402a1e:	e8 cd 18 00 00       	callq  4042f0 <_ZNSt5queueIiSt5dequeIiSaIiEEED2Ev>
  402a23:	48 8d bc 24 30 04 00 	lea    0x430(%rsp),%rdi
  402a2a:	00 
  402a2b:	e8 d0 18 00 00       	callq  404300 <_ZNSt6vectorIS_ISt4pairIiiESaIS1_EESaIS3_EED2Ev>
  402a30:	48 8d bc 24 60 04 00 	lea    0x460(%rsp),%rdi
  402a37:	00 
  402a38:	e8 43 19 00 00       	callq  404380 <_ZNSt6vectorIbSaIbEED2Ev>
  402a3d:	31 c0                	xor    %eax,%eax
  402a3f:	48 81 c4 a8 04 00 00 	add    $0x4a8,%rsp
  402a46:	c3                   	retq   
  402a47:	48 8d bc 24 30 04 00 	lea    0x430(%rsp),%rdi
  402a4e:	00 
  402a4f:	e8 ac 18 00 00       	callq  404300 <_ZNSt6vectorIS_ISt4pairIiiESaIS1_EESaIS3_EED2Ev>
  402a54:	48 8d bc 24 60 04 00 	lea    0x460(%rsp),%rdi
  402a5b:	00 
  402a5c:	e8 1f 19 00 00       	callq  404380 <_ZNSt6vectorIbSaIbEED2Ev>
/home/hoss/Documents/algorithms/server_layer/server/multi_threader.cpp:681
  402a61:	48 8b bc 24 50 04 00 	mov    0x450(%rsp),%rdi
  402a68:	00 
  402a69:	e8 52 e9 ff ff       	callq  4013c0 <_Unwind_Resume@plt>
  402a6e:	66 90                	xchg   %ax,%ax

0000000000402a70 <_ZN8SolutionD2Ev>:
~Solution():
/home/hoss/Documents/algorithms/server_layer/server/multi_threader.cpp:485
  402a70:	48 83 ec 18          	sub    $0x18,%rsp
  402a74:	48 89 7c 24 10       	mov    %rdi,0x10(%rsp)
  402a79:	48 8b 44 24 10       	mov    0x10(%rsp),%rax
  402a7e:	48 89 c1             	mov    %rax,%rcx
  402a81:	48 81 c1 70 9d 00 00 	add    $0x9d70,%rcx
  402a88:	48 89 cf             	mov    %rcx,%rdi
  402a8b:	48 89 44 24 08       	mov    %rax,0x8(%rsp)
  402a90:	e8 db f1 ff ff       	callq  401c70 <_ZNSt6vectorIiSaIiEED2Ev>
  402a95:	48 8b 44 24 08       	mov    0x8(%rsp),%rax
  402a9a:	48 05 30 9d 00 00    	add    $0x9d30,%rax
  402aa0:	48 89 c7             	mov    %rax,%rdi
  402aa3:	e8 58 16 00 00       	callq  404100 <_ZNSt10unique_ptrIA_St6atomicIiESt14default_deleteIS2_EED2Ev>
  402aa8:	48 8b 44 24 08       	mov    0x8(%rsp),%rax
  402aad:	48 05 28 9d 00 00    	add    $0x9d28,%rax
  402ab3:	48 89 c7             	mov    %rax,%rdi
  402ab6:	e8 55 84 00 00       	callq  40af10 <_ZNSt10unique_ptrIA_St11atomic_flagSt14default_deleteIS1_EED2Ev>
  402abb:	48 83 c4 18          	add    $0x18,%rsp
  402abf:	c3                   	retq   

0000000000402ac0 <_ZNSt6vectorIS_IiSaIiEESaIS1_EED2Ev>:
~vector():
/usr/bin/../lib/gcc/x86_64-linux-gnu/9/../../../../include/c++/9/bits/stl_vector.h:676
  402ac0:	48 83 ec 38          	sub    $0x38,%rsp
  402ac4:	48 89 7c 24 30       	mov    %rdi,0x30(%rsp)
  402ac9:	48 8b 44 24 30       	mov    0x30(%rsp),%rax
/usr/bin/../lib/gcc/x86_64-linux-gnu/9/../../../../include/c++/9/bits/stl_vector.h:677
  402ace:	48 8b 38             	mov    (%rax),%rdi
  402ad1:	48 8b 70 08          	mov    0x8(%rax),%rsi
  402ad5:	48 89 7c 24 18       	mov    %rdi,0x18(%rsp)
/usr/bin/../lib/gcc/x86_64-linux-gnu/9/../../../../include/c++/9/bits/stl_vector.h:678
  402ada:	48 89 c7             	mov    %rax,%rdi
  402add:	48 89 44 24 10       	mov    %rax,0x10(%rsp)
  402ae2:	48 89 74 24 08       	mov    %rsi,0x8(%rsp)
  402ae7:	e8 84 5a 00 00       	callq  408570 <_ZNSt12_Vector_baseISt6vectorIiSaIiEESaIS2_EE19_M_get_Tp_allocatorEv>
  402aec:	48 8b 7c 24 18       	mov    0x18(%rsp),%rdi
  402af1:	48 8b 74 24 08       	mov    0x8(%rsp),%rsi
/usr/bin/../lib/gcc/x86_64-linux-gnu/9/../../../../include/c++/9/bits/stl_vector.h:677
  402af6:	48 89 c2             	mov    %rax,%rdx
  402af9:	e8 32 89 00 00       	callq  40b430 <_ZSt8_DestroyIPSt6vectorIiSaIiEES2_EvT_S4_RSaIT0_E>
  402afe:	eb 00                	jmp    402b00 <_ZNSt6vectorIS_IiSaIiEESaIS1_EED2Ev+0x40>
  402b00:	48 8b 44 24 10       	mov    0x10(%rsp),%rax
/usr/bin/../lib/gcc/x86_64-linux-gnu/9/../../../../include/c++/9/bits/stl_vector.h:680
  402b05:	48 89 c7             	mov    %rax,%rdi
  402b08:	e8 53 89 00 00       	callq  40b460 <_ZNSt12_Vector_baseISt6vectorIiSaIiEESaIS2_EED2Ev>
  402b0d:	48 83 c4 38          	add    $0x38,%rsp
  402b11:	c3                   	retq   
  402b12:	48 89 44 24 28       	mov    %rax,0x28(%rsp)
  402b17:	89 54 24 24          	mov    %edx,0x24(%rsp)
  402b1b:	48 8b 44 24 10       	mov    0x10(%rsp),%rax
  402b20:	48 89 c7             	mov    %rax,%rdi
  402b23:	e8 38 89 00 00       	callq  40b460 <_ZNSt12_Vector_baseISt6vectorIiSaIiEESaIS2_EED2Ev>
  402b28:	48 8b 7c 24 28       	mov    0x28(%rsp),%rdi
  402b2d:	e8 6e 03 00 00       	callq  402ea0 <__clang_call_terminate>
_ZNSt6vectorIS_IiSaIiEESaIS1_EED2Ev():
  402b32:	66 2e 0f 1f 84 00 00 	nopw   %cs:0x0(%rax,%rax,1)
  402b39:	00 00 00 
  402b3c:	0f 1f 40 00          	nopl   0x0(%rax)

0000000000402b40 <_ZNSaISt6vectorIS_IiSaIiEESaIS1_EEEC2Ev>:
allocator():
/usr/bin/../lib/gcc/x86_64-linux-gnu/9/../../../../include/c++/9/bits/allocator.h:138
  402b40:	50                   	push   %rax
  402b41:	48 89 3c 24          	mov    %rdi,(%rsp)
  402b45:	48 8b 04 24          	mov    (%rsp),%rax
  402b49:	48 89 c7             	mov    %rax,%rdi
  402b4c:	e8 af 00 00 00       	callq  402c00 <_ZN9__gnu_cxx13new_allocatorISt6vectorIS1_IiSaIiEESaIS3_EEEC2Ev>
  402b51:	58                   	pop    %rax
  402b52:	c3                   	retq   
_ZNSaISt6vectorIS_IiSaIiEESaIS1_EEEC2Ev():
  402b53:	66 2e 0f 1f 84 00 00 	nopw   %cs:0x0(%rax,%rax,1)
  402b5a:	00 00 00 
  402b5d:	0f 1f 00             	nopl   (%rax)

0000000000402b60 <_ZNSt6vectorIS_IS_IiSaIiEESaIS1_EESaIS3_EEC2EmRKS4_>:
vector():
/usr/bin/../lib/gcc/x86_64-linux-gnu/9/../../../../include/c++/9/bits/stl_vector.h:509
  402b60:	48 83 ec 38          	sub    $0x38,%rsp
  402b64:	48 89 7c 24 30       	mov    %rdi,0x30(%rsp)
  402b69:	48 89 74 24 28       	mov    %rsi,0x28(%rsp)
  402b6e:	48 89 54 24 20       	mov    %rdx,0x20(%rsp)
  402b73:	48 8b 44 24 30       	mov    0x30(%rsp),%rax
/usr/bin/../lib/gcc/x86_64-linux-gnu/9/../../../../include/c++/9/bits/stl_vector.h:508
  402b78:	48 8b 7c 24 28       	mov    0x28(%rsp),%rdi
  402b7d:	48 8b 74 24 20       	mov    0x20(%rsp),%rsi
  402b82:	48 89 44 24 08       	mov    %rax,0x8(%rsp)
  402b87:	e8 84 00 00 00       	callq  402c10 <_ZNSt6vectorIS_IS_IiSaIiEESaIS1_EESaIS3_EE17_S_check_init_lenEmRKS4_>
  402b8c:	48 8b 54 24 20       	mov    0x20(%rsp),%rdx
  402b91:	48 8b 7c 24 08       	mov    0x8(%rsp),%rdi
  402b96:	48 89 c6             	mov    %rax,%rsi
  402b99:	e8 e2 00 00 00       	callq  402c80 <_ZNSt12_Vector_baseISt6vectorIS0_IiSaIiEESaIS2_EESaIS4_EEC2EmRKS5_>
/usr/bin/../lib/gcc/x86_64-linux-gnu/9/../../../../include/c++/9/bits/stl_vector.h:509
  402b9e:	48 8b 74 24 28       	mov    0x28(%rsp),%rsi
  402ba3:	48 8b 7c 24 08       	mov    0x8(%rsp),%rdi
  402ba8:	e8 33 01 00 00       	callq  402ce0 <_ZNSt6vectorIS_IS_IiSaIiEESaIS1_EESaIS3_EE21_M_default_initializeEm>
  402bad:	eb 00                	jmp    402baf <_ZNSt6vectorIS_IS_IiSaIiEESaIS1_EESaIS3_EEC2EmRKS4_+0x4f>
  402baf:	48 83 c4 38          	add    $0x38,%rsp
  402bb3:	c3                   	retq   
  402bb4:	48 89 44 24 18       	mov    %rax,0x18(%rsp)
  402bb9:	89 54 24 14          	mov    %edx,0x14(%rsp)
  402bbd:	48 8b 44 24 08       	mov    0x8(%rsp),%rax
  402bc2:	48 89 c7             	mov    %rax,%rdi
  402bc5:	e8 76 01 00 00       	callq  402d40 <_ZNSt12_Vector_baseISt6vectorIS0_IiSaIiEESaIS2_EESaIS4_EED2Ev>
  402bca:	48 8b 7c 24 18       	mov    0x18(%rsp),%rdi
  402bcf:	e8 ec e7 ff ff       	callq  4013c0 <_Unwind_Resume@plt>
_ZNSt6vectorIS_IS_IiSaIiEESaIS1_EESaIS3_EEC2EmRKS4_():
  402bd4:	66 2e 0f 1f 84 00 00 	nopw   %cs:0x0(%rax,%rax,1)
  402bdb:	00 00 00 
  402bde:	66 90                	xchg   %ax,%ax

0000000000402be0 <_ZNSaISt6vectorIS_IiSaIiEESaIS1_EEED2Ev>:
~allocator():
/usr/bin/../lib/gcc/x86_64-linux-gnu/9/../../../../include/c++/9/bits/allocator.h:153
  402be0:	50                   	push   %rax
  402be1:	48 89 3c 24          	mov    %rdi,(%rsp)
  402be5:	48 8b 04 24          	mov    (%rsp),%rax
  402be9:	48 89 c7             	mov    %rax,%rdi
  402bec:	e8 8f 04 00 00       	callq  403080 <_ZN9__gnu_cxx13new_allocatorISt6vectorIS1_IiSaIiEESaIS3_EEED2Ev>
  402bf1:	58                   	pop    %rax
  402bf2:	c3                   	retq   
_ZNSaISt6vectorIS_IiSaIiEESaIS1_EEED2Ev():
  402bf3:	66 2e 0f 1f 84 00 00 	nopw   %cs:0x0(%rax,%rax,1)
  402bfa:	00 00 00 
  402bfd:	0f 1f 00             	nopl   (%rax)

0000000000402c00 <_ZN9__gnu_cxx13new_allocatorISt6vectorIS1_IiSaIiEESaIS3_EEEC2Ev>:
new_allocator():
/usr/bin/../lib/gcc/x86_64-linux-gnu/9/../../../../include/c++/9/ext/new_allocator.h:80
  402c00:	48 89 7c 24 f8       	mov    %rdi,-0x8(%rsp)
  402c05:	c3                   	retq   
_ZN9__gnu_cxx13new_allocatorISt6vectorIS1_IiSaIiEESaIS3_EEEC2Ev():
  402c06:	66 2e 0f 1f 84 00 00 	nopw   %cs:0x0(%rax,%rax,1)
  402c0d:	00 00 00 

0000000000402c10 <_ZNSt6vectorIS_IS_IiSaIiEESaIS1_EESaIS3_EE17_S_check_init_lenEmRKS4_>:
_ZNSt6vectorIS_IS_IiSaIiEESaIS1_EESaIS3_EE17_S_check_init_lenEmRKS4_():
/usr/bin/../lib/gcc/x86_64-linux-gnu/9/../../../../include/c++/9/bits/stl_vector.h:1765
  402c10:	48 83 ec 28          	sub    $0x28,%rsp
  402c14:	48 89 7c 24 20       	mov    %rdi,0x20(%rsp)
  402c19:	48 89 74 24 18       	mov    %rsi,0x18(%rsp)
/usr/bin/../lib/gcc/x86_64-linux-gnu/9/../../../../include/c++/9/bits/stl_vector.h:1766
  402c1e:	48 8b 44 24 20       	mov    0x20(%rsp),%rax
  402c23:	48 8b 74 24 18       	mov    0x18(%rsp),%rsi
  402c28:	48 8d 7c 24 10       	lea    0x10(%rsp),%rdi
  402c2d:	48 89 44 24 08       	mov    %rax,0x8(%rsp)
  402c32:	e8 d9 01 00 00       	callq  402e10 <_ZNSaISt6vectorIS_IiSaIiEESaIS1_EEEC2ERKS4_>
  402c37:	48 8d 7c 24 10       	lea    0x10(%rsp),%rdi
  402c3c:	e8 6f 01 00 00       	callq  402db0 <_ZNSt6vectorIS_IS_IiSaIiEESaIS1_EESaIS3_EE11_S_max_sizeERKS4_>
  402c41:	48 8d 7c 24 10       	lea    0x10(%rsp),%rdi
  402c46:	48 89 04 24          	mov    %rax,(%rsp)
  402c4a:	e8 91 ff ff ff       	callq  402be0 <_ZNSaISt6vectorIS_IiSaIiEESaIS1_EEED2Ev>
  402c4f:	48 8b 44 24 08       	mov    0x8(%rsp),%rax
  402c54:	48 8b 0c 24          	mov    (%rsp),%rcx
  402c58:	48 39 c8             	cmp    %rcx,%rax
  402c5b:	76 0f                	jbe    402c6c <_ZNSt6vectorIS_IS_IiSaIiEESaIS1_EESaIS3_EE17_S_check_init_lenEmRKS4_+0x5c>
/usr/bin/../lib/gcc/x86_64-linux-gnu/9/../../../../include/c++/9/bits/stl_vector.h:1767
  402c5d:	48 bf de b6 40 00 00 	movabs $0x40b6de,%rdi
  402c64:	00 00 00 
  402c67:	e8 34 e7 ff ff       	callq  4013a0 <_ZSt20__throw_length_errorPKc@plt>
/usr/bin/../lib/gcc/x86_64-linux-gnu/9/../../../../include/c++/9/bits/stl_vector.h:1769
  402c6c:	48 8b 44 24 20       	mov    0x20(%rsp),%rax
  402c71:	48 83 c4 28          	add    $0x28,%rsp
  402c75:	c3                   	retq   
  402c76:	66 2e 0f 1f 84 00 00 	nopw   %cs:0x0(%rax,%rax,1)
  402c7d:	00 00 00 

0000000000402c80 <_ZNSt12_Vector_baseISt6vectorIS0_IiSaIiEESaIS2_EESaIS4_EEC2EmRKS5_>:
_Vector_base():
/usr/bin/../lib/gcc/x86_64-linux-gnu/9/../../../../include/c++/9/bits/stl_vector.h:302
  402c80:	48 83 ec 38          	sub    $0x38,%rsp
  402c84:	48 89 7c 24 30       	mov    %rdi,0x30(%rsp)
  402c89:	48 89 74 24 28       	mov    %rsi,0x28(%rsp)
  402c8e:	48 89 54 24 20       	mov    %rdx,0x20(%rsp)
  402c93:	48 8b 44 24 30       	mov    0x30(%rsp),%rax
/usr/bin/../lib/gcc/x86_64-linux-gnu/9/../../../../include/c++/9/bits/stl_vector.h:301
  402c98:	48 8b 74 24 20       	mov    0x20(%rsp),%rsi
  402c9d:	48 89 c7             	mov    %rax,%rdi
  402ca0:	48 89 44 24 08       	mov    %rax,0x8(%rsp)
  402ca5:	e8 26 02 00 00       	callq  402ed0 <_ZNSt12_Vector_baseISt6vectorIS0_IiSaIiEESaIS2_EESaIS4_EE12_Vector_implC2ERKS5_>
/usr/bin/../lib/gcc/x86_64-linux-gnu/9/../../../../include/c++/9/bits/stl_vector.h:302
  402caa:	48 8b 74 24 28       	mov    0x28(%rsp),%rsi
  402caf:	48 8b 7c 24 08       	mov    0x8(%rsp),%rdi
  402cb4:	e8 57 02 00 00       	callq  402f10 <_ZNSt12_Vector_baseISt6vectorIS0_IiSaIiEESaIS2_EESaIS4_EE17_M_create_storageEm>
  402cb9:	eb 00                	jmp    402cbb <_ZNSt12_Vector_baseISt6vectorIS0_IiSaIiEESaIS2_EESaIS4_EEC2EmRKS5_+0x3b>
  402cbb:	48 83 c4 38          	add    $0x38,%rsp
  402cbf:	c3                   	retq   
  402cc0:	48 89 44 24 18       	mov    %rax,0x18(%rsp)
  402cc5:	89 54 24 14          	mov    %edx,0x14(%rsp)
  402cc9:	48 8b 7c 24 08       	mov    0x8(%rsp),%rdi
  402cce:	e8 8d 02 00 00       	callq  402f60 <_ZNSt12_Vector_baseISt6vectorIS0_IiSaIiEESaIS2_EESaIS4_EE12_Vector_implD2Ev>
  402cd3:	48 8b 7c 24 18       	mov    0x18(%rsp),%rdi
  402cd8:	e8 e3 e6 ff ff       	callq  4013c0 <_Unwind_Resume@plt>
_ZNSt12_Vector_baseISt6vectorIS0_IiSaIiEESaIS2_EESaIS4_EEC2EmRKS5_():
  402cdd:	0f 1f 00             	nopl   (%rax)

0000000000402ce0 <_ZNSt6vectorIS_IS_IiSaIiEESaIS1_EESaIS3_EE21_M_default_initializeEm>:
_ZNSt6vectorIS_IS_IiSaIiEESaIS1_EESaIS3_EE21_M_default_initializeEm():
/usr/bin/../lib/gcc/x86_64-linux-gnu/9/../../../../include/c++/9/bits/stl_vector.h:1601
  402ce0:	48 83 ec 28          	sub    $0x28,%rsp
  402ce4:	48 89 7c 24 20       	mov    %rdi,0x20(%rsp)
  402ce9:	48 89 74 24 18       	mov    %rsi,0x18(%rsp)
  402cee:	48 8b 44 24 20       	mov    0x20(%rsp),%rax
/usr/bin/../lib/gcc/x86_64-linux-gnu/9/../../../../include/c++/9/bits/stl_vector.h:1603
  402cf3:	48 8b 38             	mov    (%rax),%rdi
  402cf6:	48 8b 74 24 18       	mov    0x18(%rsp),%rsi
/usr/bin/../lib/gcc/x86_64-linux-gnu/9/../../../../include/c++/9/bits/stl_vector.h:1604
  402cfb:	48 89 c1             	mov    %rax,%rcx
  402cfe:	48 89 7c 24 10       	mov    %rdi,0x10(%rsp)
  402d03:	48 89 cf             	mov    %rcx,%rdi
  402d06:	48 89 44 24 08       	mov    %rax,0x8(%rsp)
  402d0b:	48 89 34 24          	mov    %rsi,(%rsp)
  402d0f:	e8 ac 03 00 00       	callq  4030c0 <_ZNSt12_Vector_baseISt6vectorIS0_IiSaIiEESaIS2_EESaIS4_EE19_M_get_Tp_allocatorEv>
  402d14:	48 8b 7c 24 10       	mov    0x10(%rsp),%rdi
  402d19:	48 8b 34 24          	mov    (%rsp),%rsi
/usr/bin/../lib/gcc/x86_64-linux-gnu/9/../../../../include/c++/9/bits/stl_vector.h:1603
  402d1d:	48 89 c2             	mov    %rax,%rdx
  402d20:	e8 6b 03 00 00       	callq  403090 <_ZSt27__uninitialized_default_n_aIPSt6vectorIS0_IiSaIiEESaIS2_EEmS4_ET_S6_T0_RSaIT1_E>
  402d25:	48 8b 4c 24 08       	mov    0x8(%rsp),%rcx
/usr/bin/../lib/gcc/x86_64-linux-gnu/9/../../../../include/c++/9/bits/stl_vector.h:1602
  402d2a:	48 89 41 08          	mov    %rax,0x8(%rcx)
/usr/bin/../lib/gcc/x86_64-linux-gnu/9/../../../../include/c++/9/bits/stl_vector.h:1605
  402d2e:	48 83 c4 28          	add    $0x28,%rsp
  402d32:	c3                   	retq   
  402d33:	66 2e 0f 1f 84 00 00 	nopw   %cs:0x0(%rax,%rax,1)
  402d3a:	00 00 00 
  402d3d:	0f 1f 00             	nopl   (%rax)

0000000000402d40 <_ZNSt12_Vector_baseISt6vectorIS0_IiSaIiEESaIS2_EESaIS4_EED2Ev>:
~_Vector_base():
/usr/bin/../lib/gcc/x86_64-linux-gnu/9/../../../../include/c++/9/bits/stl_vector.h:331
  402d40:	48 83 ec 28          	sub    $0x28,%rsp
  402d44:	48 89 7c 24 20       	mov    %rdi,0x20(%rsp)
  402d49:	48 8b 44 24 20       	mov    0x20(%rsp),%rax
/usr/bin/../lib/gcc/x86_64-linux-gnu/9/../../../../include/c++/9/bits/stl_vector.h:332
  402d4e:	48 8b 08             	mov    (%rax),%rcx
/usr/bin/../lib/gcc/x86_64-linux-gnu/9/../../../../include/c++/9/bits/stl_vector.h:333
  402d51:	48 8b 50 10          	mov    0x10(%rax),%rdx
  402d55:	48 29 ca             	sub    %rcx,%rdx
  402d58:	48 c1 fa 03          	sar    $0x3,%rdx
  402d5c:	48 be ab aa aa aa aa 	movabs $0xaaaaaaaaaaaaaaab,%rsi
  402d63:	aa aa aa 
  402d66:	48 0f af d6          	imul   %rsi,%rdx
/usr/bin/../lib/gcc/x86_64-linux-gnu/9/../../../../include/c++/9/bits/stl_vector.h:332
  402d6a:	48 89 c7             	mov    %rax,%rdi
  402d6d:	48 89 ce             	mov    %rcx,%rsi
  402d70:	48 89 44 24 08       	mov    %rax,0x8(%rsp)
  402d75:	e8 26 05 00 00       	callq  4032a0 <_ZNSt12_Vector_baseISt6vectorIS0_IiSaIiEESaIS2_EESaIS4_EE13_M_deallocateEPS4_m>
  402d7a:	eb 00                	jmp    402d7c <_ZNSt12_Vector_baseISt6vectorIS0_IiSaIiEESaIS2_EESaIS4_EED2Ev+0x3c>
  402d7c:	48 8b 7c 24 08       	mov    0x8(%rsp),%rdi
/usr/bin/../lib/gcc/x86_64-linux-gnu/9/../../../../include/c++/9/bits/stl_vector.h:334
  402d81:	e8 da 01 00 00       	callq  402f60 <_ZNSt12_Vector_baseISt6vectorIS0_IiSaIiEESaIS2_EESaIS4_EE12_Vector_implD2Ev>
  402d86:	48 83 c4 28          	add    $0x28,%rsp
  402d8a:	c3                   	retq   
  402d8b:	48 89 44 24 18       	mov    %rax,0x18(%rsp)
  402d90:	89 54 24 14          	mov    %edx,0x14(%rsp)
  402d94:	48 8b 7c 24 08       	mov    0x8(%rsp),%rdi
  402d99:	e8 c2 01 00 00       	callq  402f60 <_ZNSt12_Vector_baseISt6vectorIS0_IiSaIiEESaIS2_EESaIS4_EE12_Vector_implD2Ev>
  402d9e:	48 8b 7c 24 18       	mov    0x18(%rsp),%rdi
  402da3:	e8 f8 00 00 00       	callq  402ea0 <__clang_call_terminate>
_ZNSt12_Vector_baseISt6vectorIS0_IiSaIiEESaIS2_EESaIS4_EED2Ev():
  402da8:	0f 1f 84 00 00 00 00 	nopl   0x0(%rax,%rax,1)
  402daf:	00 

0000000000402db0 <_ZNSt6vectorIS_IS_IiSaIiEESaIS1_EESaIS3_EE11_S_max_sizeERKS4_>:
_ZNSt6vectorIS_IS_IiSaIiEESaIS1_EESaIS3_EE11_S_max_sizeERKS4_():
/usr/bin/../lib/gcc/x86_64-linux-gnu/9/../../../../include/c++/9/bits/stl_vector.h:1774
  402db0:	48 83 ec 28          	sub    $0x28,%rsp
  402db4:	48 89 7c 24 20       	mov    %rdi,0x20(%rsp)
  402db9:	48 b8 55 55 55 55 55 	movabs $0x555555555555555,%rax
  402dc0:	55 55 05 
/usr/bin/../lib/gcc/x86_64-linux-gnu/9/../../../../include/c++/9/bits/stl_vector.h:1778
  402dc3:	48 89 44 24 18       	mov    %rax,0x18(%rsp)
/usr/bin/../lib/gcc/x86_64-linux-gnu/9/../../../../include/c++/9/bits/stl_vector.h:1780
  402dc8:	48 8b 7c 24 20       	mov    0x20(%rsp),%rdi
  402dcd:	e8 6e 00 00 00       	callq  402e40 <_ZNSt16allocator_traitsISaISt6vectorIS0_IiSaIiEESaIS2_EEEE8max_sizeERKS5_>
  402dd2:	48 89 44 24 10       	mov    %rax,0x10(%rsp)
  402dd7:	48 8d 7c 24 18       	lea    0x18(%rsp),%rdi
  402ddc:	48 8d 74 24 10       	lea    0x10(%rsp),%rsi
/usr/bin/../lib/gcc/x86_64-linux-gnu/9/../../../../include/c++/9/bits/stl_vector.h:1781
  402de1:	e8 7a 00 00 00       	callq  402e60 <_ZSt3minImERKT_S2_S2_>
  402de6:	48 89 44 24 08       	mov    %rax,0x8(%rsp)
  402deb:	eb 00                	jmp    402ded <_ZNSt6vectorIS_IS_IiSaIiEESaIS1_EESaIS3_EE11_S_max_sizeERKS4_+0x3d>
  402ded:	48 8b 44 24 08       	mov    0x8(%rsp),%rax
  402df2:	48 8b 00             	mov    (%rax),%rax
  402df5:	48 83 c4 28          	add    $0x28,%rsp
  402df9:	c3                   	retq   
  402dfa:	48 89 c7             	mov    %rax,%rdi
  402dfd:	89 54 24 04          	mov    %edx,0x4(%rsp)
  402e01:	e8 9a 00 00 00       	callq  402ea0 <__clang_call_terminate>
  402e06:	66 2e 0f 1f 84 00 00 	nopw   %cs:0x0(%rax,%rax,1)
  402e0d:	00 00 00 

0000000000402e10 <_ZNSaISt6vectorIS_IiSaIiEESaIS1_EEEC2ERKS4_>:
allocator():
/usr/bin/../lib/gcc/x86_64-linux-gnu/9/../../../../include/c++/9/bits/allocator.h:142
  402e10:	48 83 ec 18          	sub    $0x18,%rsp
  402e14:	48 89 7c 24 10       	mov    %rdi,0x10(%rsp)
  402e19:	48 89 74 24 08       	mov    %rsi,0x8(%rsp)
  402e1e:	48 8b 44 24 10       	mov    0x10(%rsp),%rax
  402e23:	48 8b 4c 24 08       	mov    0x8(%rsp),%rcx
  402e28:	48 89 c7             	mov    %rax,%rdi
  402e2b:	48 89 ce             	mov    %rcx,%rsi
  402e2e:	e8 8d 00 00 00       	callq  402ec0 <_ZN9__gnu_cxx13new_allocatorISt6vectorIS1_IiSaIiEESaIS3_EEEC2ERKS6_>
  402e33:	48 83 c4 18          	add    $0x18,%rsp
  402e37:	c3                   	retq   
_ZNSaISt6vectorIS_IiSaIiEESaIS1_EEEC2ERKS4_():
  402e38:	0f 1f 84 00 00 00 00 	nopl   0x0(%rax,%rax,1)
  402e3f:	00 

0000000000402e40 <_ZNSt16allocator_traitsISaISt6vectorIS0_IiSaIiEESaIS2_EEEE8max_sizeERKS5_>:
_ZNSt16allocator_traitsISaISt6vectorIS0_IiSaIiEESaIS2_EEEE8max_sizeERKS5_():
/usr/bin/../lib/gcc/x86_64-linux-gnu/9/../../../../include/c++/9/bits/alloc_traits.h:506
  402e40:	50                   	push   %rax
  402e41:	48 89 3c 24          	mov    %rdi,(%rsp)
  402e45:	48 8b 04 24          	mov    (%rsp),%rax
  402e49:	48 89 c7             	mov    %rax,%rdi
  402e4c:	e8 5f 00 00 00       	callq  402eb0 <_ZNK9__gnu_cxx13new_allocatorISt6vectorIS1_IiSaIiEESaIS3_EEE8max_sizeEv>
  402e51:	59                   	pop    %rcx
  402e52:	c3                   	retq   
  402e53:	66 2e 0f 1f 84 00 00 	nopw   %cs:0x0(%rax,%rax,1)
  402e5a:	00 00 00 
  402e5d:	0f 1f 00             	nopl   (%rax)

0000000000402e60 <_ZSt3minImERKT_S2_S2_>:
_ZSt3minImERKT_S2_S2_():
/usr/bin/../lib/gcc/x86_64-linux-gnu/9/../../../../include/c++/9/bits/stl_algobase.h:199
  402e60:	48 89 7c 24 f0       	mov    %rdi,-0x10(%rsp)
  402e65:	48 89 74 24 e8       	mov    %rsi,-0x18(%rsp)
/usr/bin/../lib/gcc/x86_64-linux-gnu/9/../../../../include/c++/9/bits/stl_algobase.h:203
  402e6a:	48 8b 44 24 e8       	mov    -0x18(%rsp),%rax
  402e6f:	48 8b 00             	mov    (%rax),%rax
  402e72:	48 8b 4c 24 f0       	mov    -0x10(%rsp),%rcx
  402e77:	48 3b 01             	cmp    (%rcx),%rax
  402e7a:	73 0c                	jae    402e88 <_ZSt3minImERKT_S2_S2_+0x28>
/usr/bin/../lib/gcc/x86_64-linux-gnu/9/../../../../include/c++/9/bits/stl_algobase.h:204
  402e7c:	48 8b 44 24 e8       	mov    -0x18(%rsp),%rax
  402e81:	48 89 44 24 f8       	mov    %rax,-0x8(%rsp)
  402e86:	eb 0a                	jmp    402e92 <_ZSt3minImERKT_S2_S2_+0x32>
/usr/bin/../lib/gcc/x86_64-linux-gnu/9/../../../../include/c++/9/bits/stl_algobase.h:205
  402e88:	48 8b 44 24 f0       	mov    -0x10(%rsp),%rax
  402e8d:	48 89 44 24 f8       	mov    %rax,-0x8(%rsp)
/usr/bin/../lib/gcc/x86_64-linux-gnu/9/../../../../include/c++/9/bits/stl_algobase.h:206
  402e92:	48 8b 44 24 f8       	mov    -0x8(%rsp),%rax
  402e97:	c3                   	retq   
  402e98:	0f 1f 84 00 00 00 00 	nopl   0x0(%rax,%rax,1)
  402e9f:	00 

0000000000402ea0 <__clang_call_terminate>:
__clang_call_terminate():
  402ea0:	50                   	push   %rax
  402ea1:	e8 ca e3 ff ff       	callq  401270 <__cxa_begin_catch@plt>
  402ea6:	48 89 04 24          	mov    %rax,(%rsp)
  402eaa:	e8 f1 e5 ff ff       	callq  4014a0 <_ZSt9terminatev@plt>
  402eaf:	90                   	nop

0000000000402eb0 <_ZNK9__gnu_cxx13new_allocatorISt6vectorIS1_IiSaIiEESaIS3_EEE8max_sizeEv>:
_ZNK9__gnu_cxx13new_allocatorISt6vectorIS1_IiSaIiEESaIS3_EEE8max_sizeEv():
/usr/bin/../lib/gcc/x86_64-linux-gnu/9/../../../../include/c++/9/ext/new_allocator.h:133
  402eb0:	48 89 7c 24 f8       	mov    %rdi,-0x8(%rsp)
/usr/bin/../lib/gcc/x86_64-linux-gnu/9/../../../../include/c++/9/ext/new_allocator.h:135
  402eb5:	48 b8 55 55 55 55 55 	movabs $0x555555555555555,%rax
  402ebc:	55 55 05 
  402ebf:	c3                   	retq   

0000000000402ec0 <_ZN9__gnu_cxx13new_allocatorISt6vectorIS1_IiSaIiEESaIS3_EEEC2ERKS6_>:
new_allocator():
/usr/bin/../lib/gcc/x86_64-linux-gnu/9/../../../../include/c++/9/ext/new_allocator.h:83
  402ec0:	48 89 7c 24 f8       	mov    %rdi,-0x8(%rsp)
  402ec5:	48 89 74 24 f0       	mov    %rsi,-0x10(%rsp)
  402eca:	c3                   	retq   
_ZN9__gnu_cxx13new_allocatorISt6vectorIS1_IiSaIiEESaIS3_EEEC2ERKS6_():
  402ecb:	0f 1f 44 00 00       	nopl   0x0(%rax,%rax,1)

0000000000402ed0 <_ZNSt12_Vector_baseISt6vectorIS0_IiSaIiEESaIS2_EESaIS4_EE12_Vector_implC2ERKS5_>:
_Vector_impl():
/usr/bin/../lib/gcc/x86_64-linux-gnu/9/../../../../include/c++/9/bits/stl_vector.h:135
  402ed0:	48 83 ec 18          	sub    $0x18,%rsp
  402ed4:	48 89 7c 24 10       	mov    %rdi,0x10(%rsp)
  402ed9:	48 89 74 24 08       	mov    %rsi,0x8(%rsp)
  402ede:	48 8b 44 24 10       	mov    0x10(%rsp),%rax
  402ee3:	48 89 c1             	mov    %rax,%rcx
/usr/bin/../lib/gcc/x86_64-linux-gnu/9/../../../../include/c++/9/bits/stl_vector.h:134
  402ee6:	48 8b 74 24 08       	mov    0x8(%rsp),%rsi
  402eeb:	48 89 cf             	mov    %rcx,%rdi
  402eee:	48 89 04 24          	mov    %rax,(%rsp)
  402ef2:	e8 19 ff ff ff       	callq  402e10 <_ZNSaISt6vectorIS_IiSaIiEESaIS1_EEEC2ERKS4_>
  402ef7:	48 8b 04 24          	mov    (%rsp),%rax
/usr/bin/../lib/gcc/x86_64-linux-gnu/9/../../../../include/c++/9/bits/stl_vector.h:133
  402efb:	48 89 c7             	mov    %rax,%rdi
  402efe:	e8 7d 00 00 00       	callq  402f80 <_ZNSt12_Vector_baseISt6vectorIS0_IiSaIiEESaIS2_EESaIS4_EE17_Vector_impl_dataC2Ev>
/usr/bin/../lib/gcc/x86_64-linux-gnu/9/../../../../include/c++/9/bits/stl_vector.h:135
  402f03:	48 83 c4 18          	add    $0x18,%rsp
  402f07:	c3                   	retq   
_ZNSt12_Vector_baseISt6vectorIS0_IiSaIiEESaIS2_EESaIS4_EE12_Vector_implC2ERKS5_():
  402f08:	0f 1f 84 00 00 00 00 	nopl   0x0(%rax,%rax,1)
  402f0f:	00 

0000000000402f10 <_ZNSt12_Vector_baseISt6vectorIS0_IiSaIiEESaIS2_EESaIS4_EE17_M_create_storageEm>:
_ZNSt12_Vector_baseISt6vectorIS0_IiSaIiEESaIS2_EESaIS4_EE17_M_create_storageEm():
/usr/bin/../lib/gcc/x86_64-linux-gnu/9/../../../../include/c++/9/bits/stl_vector.h:357
  402f10:	48 83 ec 18          	sub    $0x18,%rsp
  402f14:	48 89 7c 24 10       	mov    %rdi,0x10(%rsp)
  402f19:	48 89 74 24 08       	mov    %rsi,0x8(%rsp)
  402f1e:	48 8b 44 24 10       	mov    0x10(%rsp),%rax
/usr/bin/../lib/gcc/x86_64-linux-gnu/9/../../../../include/c++/9/bits/stl_vector.h:358
  402f23:	48 8b 74 24 08       	mov    0x8(%rsp),%rsi
  402f28:	48 89 c7             	mov    %rax,%rdi
  402f2b:	48 89 04 24          	mov    %rax,(%rsp)
  402f2f:	e8 7c 00 00 00       	callq  402fb0 <_ZNSt12_Vector_baseISt6vectorIS0_IiSaIiEESaIS2_EESaIS4_EE11_M_allocateEm>
  402f34:	48 8b 0c 24          	mov    (%rsp),%rcx
  402f38:	48 89 01             	mov    %rax,(%rcx)
/usr/bin/../lib/gcc/x86_64-linux-gnu/9/../../../../include/c++/9/bits/stl_vector.h:359
  402f3b:	48 8b 01             	mov    (%rcx),%rax
  402f3e:	48 89 41 08          	mov    %rax,0x8(%rcx)
/usr/bin/../lib/gcc/x86_64-linux-gnu/9/../../../../include/c++/9/bits/stl_vector.h:360
  402f42:	48 8b 01             	mov    (%rcx),%rax
  402f45:	48 6b 54 24 08 18    	imul   $0x18,0x8(%rsp),%rdx
  402f4b:	48 01 d0             	add    %rdx,%rax
  402f4e:	48 89 41 10          	mov    %rax,0x10(%rcx)
/usr/bin/../lib/gcc/x86_64-linux-gnu/9/../../../../include/c++/9/bits/stl_vector.h:361
  402f52:	48 83 c4 18          	add    $0x18,%rsp
  402f56:	c3                   	retq   
  402f57:	66 0f 1f 84 00 00 00 	nopw   0x0(%rax,%rax,1)
  402f5e:	00 00 

0000000000402f60 <_ZNSt12_Vector_baseISt6vectorIS0_IiSaIiEESaIS2_EESaIS4_EE12_Vector_implD2Ev>:
~_Vector_impl():
/usr/bin/../lib/gcc/x86_64-linux-gnu/9/../../../../include/c++/9/bits/stl_vector.h:125
  402f60:	50                   	push   %rax
  402f61:	48 89 3c 24          	mov    %rdi,(%rsp)
  402f65:	48 8b 04 24          	mov    (%rsp),%rax
  402f69:	48 89 c7             	mov    %rax,%rdi
  402f6c:	e8 6f fc ff ff       	callq  402be0 <_ZNSaISt6vectorIS_IiSaIiEESaIS1_EEED2Ev>
  402f71:	58                   	pop    %rax
  402f72:	c3                   	retq   
_ZNSt12_Vector_baseISt6vectorIS0_IiSaIiEESaIS2_EESaIS4_EE12_Vector_implD2Ev():
  402f73:	66 2e 0f 1f 84 00 00 	nopw   %cs:0x0(%rax,%rax,1)
  402f7a:	00 00 00 
  402f7d:	0f 1f 00             	nopl   (%rax)

0000000000402f80 <_ZNSt12_Vector_baseISt6vectorIS0_IiSaIiEESaIS2_EESaIS4_EE17_Vector_impl_dataC2Ev>:
_Vector_impl_data():
/usr/bin/../lib/gcc/x86_64-linux-gnu/9/../../../../include/c++/9/bits/stl_vector.h:96
  402f80:	48 89 7c 24 f8       	mov    %rdi,-0x8(%rsp)
  402f85:	48 8b 44 24 f8       	mov    -0x8(%rsp),%rax
/usr/bin/../lib/gcc/x86_64-linux-gnu/9/../../../../include/c++/9/bits/stl_vector.h:95
  402f8a:	48 c7 00 00 00 00 00 	movq   $0x0,(%rax)
  402f91:	48 c7 40 08 00 00 00 	movq   $0x0,0x8(%rax)
  402f98:	00 
  402f99:	48 c7 40 10 00 00 00 	movq   $0x0,0x10(%rax)
  402fa0:	00 
/usr/bin/../lib/gcc/x86_64-linux-gnu/9/../../../../include/c++/9/bits/stl_vector.h:96
  402fa1:	c3                   	retq   
_ZNSt12_Vector_baseISt6vectorIS0_IiSaIiEESaIS2_EESaIS4_EE17_Vector_impl_dataC2Ev():
  402fa2:	66 2e 0f 1f 84 00 00 	nopw   %cs:0x0(%rax,%rax,1)
  402fa9:	00 00 00 
  402fac:	0f 1f 40 00          	nopl   0x0(%rax)

0000000000402fb0 <_ZNSt12_Vector_baseISt6vectorIS0_IiSaIiEESaIS2_EESaIS4_EE11_M_allocateEm>:
_ZNSt12_Vector_baseISt6vectorIS0_IiSaIiEESaIS2_EESaIS4_EE11_M_allocateEm():
/usr/bin/../lib/gcc/x86_64-linux-gnu/9/../../../../include/c++/9/bits/stl_vector.h:341
  402fb0:	48 83 ec 28          	sub    $0x28,%rsp
  402fb4:	48 89 7c 24 20       	mov    %rdi,0x20(%rsp)
  402fb9:	48 89 74 24 18       	mov    %rsi,0x18(%rsp)
  402fbe:	48 8b 44 24 20       	mov    0x20(%rsp),%rax
/usr/bin/../lib/gcc/x86_64-linux-gnu/9/../../../../include/c++/9/bits/stl_vector.h:343
  402fc3:	48 83 7c 24 18 00    	cmpq   $0x0,0x18(%rsp)
  402fc9:	48 89 44 24 10       	mov    %rax,0x10(%rsp)
  402fce:	74 19                	je     402fe9 <_ZNSt12_Vector_baseISt6vectorIS0_IiSaIiEESaIS2_EESaIS4_EE11_M_allocateEm+0x39>
  402fd0:	48 8b 44 24 10       	mov    0x10(%rsp),%rax
  402fd5:	48 8b 74 24 18       	mov    0x18(%rsp),%rsi
  402fda:	48 89 c7             	mov    %rax,%rdi
  402fdd:	e8 1e 00 00 00       	callq  403000 <_ZNSt16allocator_traitsISaISt6vectorIS0_IiSaIiEESaIS2_EEEE8allocateERS5_m>
  402fe2:	48 89 44 24 08       	mov    %rax,0x8(%rsp)
  402fe7:	eb 0b                	jmp    402ff4 <_ZNSt12_Vector_baseISt6vectorIS0_IiSaIiEESaIS2_EESaIS4_EE11_M_allocateEm+0x44>
  402fe9:	31 c0                	xor    %eax,%eax
  402feb:	89 c1                	mov    %eax,%ecx
  402fed:	48 89 4c 24 08       	mov    %rcx,0x8(%rsp)
  402ff2:	eb 00                	jmp    402ff4 <_ZNSt12_Vector_baseISt6vectorIS0_IiSaIiEESaIS2_EESaIS4_EE11_M_allocateEm+0x44>
  402ff4:	48 8b 44 24 08       	mov    0x8(%rsp),%rax
  402ff9:	48 83 c4 28          	add    $0x28,%rsp
  402ffd:	c3                   	retq   
  402ffe:	66 90                	xchg   %ax,%ax

0000000000403000 <_ZNSt16allocator_traitsISaISt6vectorIS0_IiSaIiEESaIS2_EEEE8allocateERS5_m>:
_ZNSt16allocator_traitsISaISt6vectorIS0_IiSaIiEESaIS2_EEEE8allocateERS5_m():
/usr/bin/../lib/gcc/x86_64-linux-gnu/9/../../../../include/c++/9/bits/alloc_traits.h:444
  403000:	48 83 ec 18          	sub    $0x18,%rsp
  403004:	31 c0                	xor    %eax,%eax
  403006:	89 c2                	mov    %eax,%edx
  403008:	48 89 7c 24 10       	mov    %rdi,0x10(%rsp)
  40300d:	48 89 74 24 08       	mov    %rsi,0x8(%rsp)
  403012:	48 8b 4c 24 10       	mov    0x10(%rsp),%rcx
  403017:	48 8b 74 24 08       	mov    0x8(%rsp),%rsi
  40301c:	48 89 cf             	mov    %rcx,%rdi
  40301f:	e8 0c 00 00 00       	callq  403030 <_ZN9__gnu_cxx13new_allocatorISt6vectorIS1_IiSaIiEESaIS3_EEE8allocateEmPKv>
  403024:	48 83 c4 18          	add    $0x18,%rsp
  403028:	c3                   	retq   
  403029:	0f 1f 80 00 00 00 00 	nopl   0x0(%rax)

0000000000403030 <_ZN9__gnu_cxx13new_allocatorISt6vectorIS1_IiSaIiEESaIS3_EEE8allocateEmPKv>:
_ZN9__gnu_cxx13new_allocatorISt6vectorIS1_IiSaIiEESaIS3_EEE8allocateEmPKv():
/usr/bin/../lib/gcc/x86_64-linux-gnu/9/../../../../include/c++/9/ext/new_allocator.h:103
  403030:	48 83 ec 28          	sub    $0x28,%rsp
  403034:	48 89 7c 24 20       	mov    %rdi,0x20(%rsp)
  403039:	48 89 74 24 18       	mov    %rsi,0x18(%rsp)
  40303e:	48 89 54 24 10       	mov    %rdx,0x10(%rsp)
  403043:	48 8b 7c 24 20       	mov    0x20(%rsp),%rdi
/usr/bin/../lib/gcc/x86_64-linux-gnu/9/../../../../include/c++/9/ext/new_allocator.h:104
  403048:	48 8b 44 24 18       	mov    0x18(%rsp),%rax
  40304d:	48 89 44 24 08       	mov    %rax,0x8(%rsp)
  403052:	e8 59 fe ff ff       	callq  402eb0 <_ZNK9__gnu_cxx13new_allocatorISt6vectorIS1_IiSaIiEESaIS3_EEE8max_sizeEv>
  403057:	48 8b 4c 24 08       	mov    0x8(%rsp),%rcx
  40305c:	48 39 c1             	cmp    %rax,%rcx
  40305f:	76 05                	jbe    403066 <_ZN9__gnu_cxx13new_allocatorISt6vectorIS1_IiSaIiEESaIS3_EEE8allocateEmPKv+0x36>
/usr/bin/../lib/gcc/x86_64-linux-gnu/9/../../../../include/c++/9/ext/new_allocator.h:105
  403061:	e8 2a e2 ff ff       	callq  401290 <_ZSt17__throw_bad_allocv@plt>
/usr/bin/../lib/gcc/x86_64-linux-gnu/9/../../../../include/c++/9/ext/new_allocator.h:114
  403066:	48 6b 7c 24 18 18    	imul   $0x18,0x18(%rsp),%rdi
  40306c:	e8 2f e2 ff ff       	callq  4012a0 <_Znwm@plt>
  403071:	48 83 c4 28          	add    $0x28,%rsp
  403075:	c3                   	retq   
  403076:	66 2e 0f 1f 84 00 00 	nopw   %cs:0x0(%rax,%rax,1)
  40307d:	00 00 00 

0000000000403080 <_ZN9__gnu_cxx13new_allocatorISt6vectorIS1_IiSaIiEESaIS3_EEED2Ev>:
~new_allocator():
/usr/bin/../lib/gcc/x86_64-linux-gnu/9/../../../../include/c++/9/ext/new_allocator.h:89
  403080:	48 89 7c 24 f8       	mov    %rdi,-0x8(%rsp)
  403085:	c3                   	retq   
_ZN9__gnu_cxx13new_allocatorISt6vectorIS1_IiSaIiEESaIS3_EEED2Ev():
  403086:	66 2e 0f 1f 84 00 00 	nopw   %cs:0x0(%rax,%rax,1)
  40308d:	00 00 00 

0000000000403090 <_ZSt27__uninitialized_default_n_aIPSt6vectorIS0_IiSaIiEESaIS2_EEmS4_ET_S6_T0_RSaIT1_E>:
_ZSt27__uninitialized_default_n_aIPSt6vectorIS0_IiSaIiEESaIS2_EEmS4_ET_S6_T0_RSaIT1_E():
/usr/bin/../lib/gcc/x86_64-linux-gnu/9/../../../../include/c++/9/bits/stl_uninitialized.h:663
  403090:	48 83 ec 18          	sub    $0x18,%rsp
  403094:	48 89 7c 24 10       	mov    %rdi,0x10(%rsp)
  403099:	48 89 74 24 08       	mov    %rsi,0x8(%rsp)
  40309e:	48 89 14 24          	mov    %rdx,(%rsp)
  4030a2:	48 8b 7c 24 10       	mov    0x10(%rsp),%rdi
  4030a7:	48 8b 74 24 08       	mov    0x8(%rsp),%rsi
  4030ac:	e8 1f 00 00 00       	callq  4030d0 <_ZSt25__uninitialized_default_nIPSt6vectorIS0_IiSaIiEESaIS2_EEmET_S6_T0_>
  4030b1:	48 83 c4 18          	add    $0x18,%rsp
  4030b5:	c3                   	retq   
  4030b6:	66 2e 0f 1f 84 00 00 	nopw   %cs:0x0(%rax,%rax,1)
  4030bd:	00 00 00 

00000000004030c0 <_ZNSt12_Vector_baseISt6vectorIS0_IiSaIiEESaIS2_EESaIS4_EE19_M_get_Tp_allocatorEv>:
_ZNSt12_Vector_baseISt6vectorIS0_IiSaIiEESaIS2_EESaIS4_EE19_M_get_Tp_allocatorEv():
/usr/bin/../lib/gcc/x86_64-linux-gnu/9/../../../../include/c++/9/bits/stl_vector.h:274
  4030c0:	48 89 7c 24 f8       	mov    %rdi,-0x8(%rsp)
  4030c5:	48 8b 44 24 f8       	mov    -0x8(%rsp),%rax
  4030ca:	c3                   	retq   
  4030cb:	0f 1f 44 00 00       	nopl   0x0(%rax,%rax,1)

00000000004030d0 <_ZSt25__uninitialized_default_nIPSt6vectorIS0_IiSaIiEESaIS2_EEmET_S6_T0_>:
_ZSt25__uninitialized_default_nIPSt6vectorIS0_IiSaIiEESaIS2_EEmET_S6_T0_():
/usr/bin/../lib/gcc/x86_64-linux-gnu/9/../../../../include/c++/9/bits/stl_uninitialized.h:593
  4030d0:	48 83 ec 18          	sub    $0x18,%rsp
  4030d4:	48 89 7c 24 10       	mov    %rdi,0x10(%rsp)
  4030d9:	48 89 74 24 08       	mov    %rsi,0x8(%rsp)
/usr/bin/../lib/gcc/x86_64-linux-gnu/9/../../../../include/c++/9/bits/stl_uninitialized.h:597
  4030de:	c6 44 24 07 01       	movb   $0x1,0x7(%rsp)
/usr/bin/../lib/gcc/x86_64-linux-gnu/9/../../../../include/c++/9/bits/stl_uninitialized.h:601
  4030e3:	48 8b 7c 24 10       	mov    0x10(%rsp),%rdi
  4030e8:	48 8b 74 24 08       	mov    0x8(%rsp),%rsi
/usr/bin/../lib/gcc/x86_64-linux-gnu/9/../../../../include/c++/9/bits/stl_uninitialized.h:599
  4030ed:	e8 0e 00 00 00       	callq  403100 <_ZNSt27__uninitialized_default_n_1ILb0EE18__uninit_default_nIPSt6vectorIS2_IiSaIiEESaIS4_EEmEET_S8_T0_>
  4030f2:	48 83 c4 18          	add    $0x18,%rsp
  4030f6:	c3                   	retq   
  4030f7:	66 0f 1f 84 00 00 00 	nopw   0x0(%rax,%rax,1)
  4030fe:	00 00 

0000000000403100 <_ZNSt27__uninitialized_default_n_1ILb0EE18__uninit_default_nIPSt6vectorIS2_IiSaIiEESaIS4_EEmEET_S8_T0_>:
_ZNSt27__uninitialized_default_n_1ILb0EE18__uninit_default_nIPSt6vectorIS2_IiSaIiEESaIS4_EEmEET_S8_T0_():
/usr/bin/../lib/gcc/x86_64-linux-gnu/9/../../../../include/c++/9/bits/stl_uninitialized.h:540
  403100:	48 83 ec 38          	sub    $0x38,%rsp
  403104:	48 89 7c 24 30       	mov    %rdi,0x30(%rsp)
  403109:	48 89 74 24 28       	mov    %rsi,0x28(%rsp)
/usr/bin/../lib/gcc/x86_64-linux-gnu/9/../../../../include/c++/9/bits/stl_uninitialized.h:541
  40310e:	48 8b 44 24 30       	mov    0x30(%rsp),%rax
  403113:	48 89 44 24 20       	mov    %rax,0x20(%rsp)
/usr/bin/../lib/gcc/x86_64-linux-gnu/9/../../../../include/c++/9/bits/stl_uninitialized.h:544
  403118:	48 83 7c 24 28 00    	cmpq   $0x0,0x28(%rsp)
  40311e:	76 64                	jbe    403184 <_ZNSt27__uninitialized_default_n_1ILb0EE18__uninit_default_nIPSt6vectorIS2_IiSaIiEESaIS4_EEmEET_S8_T0_+0x84>
/usr/bin/../lib/gcc/x86_64-linux-gnu/9/../../../../include/c++/9/bits/stl_uninitialized.h:545
  403120:	48 8b 7c 24 20       	mov    0x20(%rsp),%rdi
  403125:	e8 d6 00 00 00       	callq  403200 <_ZSt11__addressofISt6vectorIS0_IiSaIiEESaIS2_EEEPT_RS5_>
  40312a:	48 89 c7             	mov    %rax,%rdi
  40312d:	e8 8e 00 00 00       	callq  4031c0 <_ZSt10_ConstructISt6vectorIS0_IiSaIiEESaIS2_EEJEEvPT_DpOT0_>
  403132:	eb 00                	jmp    403134 <_ZNSt27__uninitialized_default_n_1ILb0EE18__uninit_default_nIPSt6vectorIS2_IiSaIiEESaIS4_EEmEET_S8_T0_+0x34>
  403134:	eb 00                	jmp    403136 <_ZNSt27__uninitialized_default_n_1ILb0EE18__uninit_default_nIPSt6vectorIS2_IiSaIiEESaIS4_EEmEET_S8_T0_+0x36>
/usr/bin/../lib/gcc/x86_64-linux-gnu/9/../../../../include/c++/9/bits/stl_uninitialized.h:544
  403136:	48 8b 44 24 28       	mov    0x28(%rsp),%rax
  40313b:	48 83 c0 ff          	add    $0xffffffffffffffff,%rax
  40313f:	48 89 44 24 28       	mov    %rax,0x28(%rsp)
  403144:	48 8b 44 24 20       	mov    0x20(%rsp),%rax
  403149:	48 83 c0 18          	add    $0x18,%rax
  40314d:	48 89 44 24 20       	mov    %rax,0x20(%rsp)
  403152:	eb c4                	jmp    403118 <_ZNSt27__uninitialized_default_n_1ILb0EE18__uninit_default_nIPSt6vectorIS2_IiSaIiEESaIS4_EEmEET_S8_T0_+0x18>
/usr/bin/../lib/gcc/x86_64-linux-gnu/9/../../../../include/c++/9/bits/stl_uninitialized.h:553
  403154:	48 89 44 24 18       	mov    %rax,0x18(%rsp)
  403159:	89 54 24 14          	mov    %edx,0x14(%rsp)
/usr/bin/../lib/gcc/x86_64-linux-gnu/9/../../../../include/c++/9/bits/stl_uninitialized.h:547
  40315d:	48 8b 7c 24 18       	mov    0x18(%rsp),%rdi
  403162:	e8 09 e1 ff ff       	callq  401270 <__cxa_begin_catch@plt>
/usr/bin/../lib/gcc/x86_64-linux-gnu/9/../../../../include/c++/9/bits/stl_uninitialized.h:550
  403167:	48 8b 7c 24 30       	mov    0x30(%rsp),%rdi
  40316c:	48 8b 74 24 20       	mov    0x20(%rsp),%rsi
  403171:	48 89 44 24 08       	mov    %rax,0x8(%rsp)
  403176:	e8 95 00 00 00       	callq  403210 <_ZSt8_DestroyIPSt6vectorIS0_IiSaIiEESaIS2_EEEvT_S6_>
  40317b:	eb 00                	jmp    40317d <_ZNSt27__uninitialized_default_n_1ILb0EE18__uninit_default_nIPSt6vectorIS2_IiSaIiEESaIS4_EEmEET_S8_T0_+0x7d>
/usr/bin/../lib/gcc/x86_64-linux-gnu/9/../../../../include/c++/9/bits/stl_uninitialized.h:551
  40317d:	e8 9e e2 ff ff       	callq  401420 <__cxa_rethrow@plt>
  403182:	eb 32                	jmp    4031b6 <_ZNSt27__uninitialized_default_n_1ILb0EE18__uninit_default_nIPSt6vectorIS2_IiSaIiEESaIS4_EEmEET_S8_T0_+0xb6>
/usr/bin/../lib/gcc/x86_64-linux-gnu/9/../../../../include/c++/9/bits/stl_uninitialized.h:546
  403184:	48 8b 44 24 20       	mov    0x20(%rsp),%rax
  403189:	48 83 c4 38          	add    $0x38,%rsp
  40318d:	c3                   	retq   
/usr/bin/../lib/gcc/x86_64-linux-gnu/9/../../../../include/c++/9/bits/stl_uninitialized.h:553
  40318e:	48 89 44 24 18       	mov    %rax,0x18(%rsp)
  403193:	89 54 24 14          	mov    %edx,0x14(%rsp)
/usr/bin/../lib/gcc/x86_64-linux-gnu/9/../../../../include/c++/9/bits/stl_uninitialized.h:552
  403197:	e8 64 e2 ff ff       	callq  401400 <__cxa_end_catch@plt>
  40319c:	eb 00                	jmp    40319e <_ZNSt27__uninitialized_default_n_1ILb0EE18__uninit_default_nIPSt6vectorIS2_IiSaIiEESaIS4_EEmEET_S8_T0_+0x9e>
  40319e:	eb 00                	jmp    4031a0 <_ZNSt27__uninitialized_default_n_1ILb0EE18__uninit_default_nIPSt6vectorIS2_IiSaIiEESaIS4_EEmEET_S8_T0_+0xa0>
  4031a0:	48 8b 7c 24 18       	mov    0x18(%rsp),%rdi
  4031a5:	e8 16 e2 ff ff       	callq  4013c0 <_Unwind_Resume@plt>
  4031aa:	48 89 c7             	mov    %rax,%rdi
  4031ad:	89 54 24 04          	mov    %edx,0x4(%rsp)
  4031b1:	e8 ea fc ff ff       	callq  402ea0 <__clang_call_terminate>
  4031b6:	66 2e 0f 1f 84 00 00 	nopw   %cs:0x0(%rax,%rax,1)
  4031bd:	00 00 00 

00000000004031c0 <_ZSt10_ConstructISt6vectorIS0_IiSaIiEESaIS2_EEJEEvPT_DpOT0_>:
_ZSt10_ConstructISt6vectorIS0_IiSaIiEESaIS2_EEJEEvPT_DpOT0_():
/usr/bin/../lib/gcc/x86_64-linux-gnu/9/../../../../include/c++/9/bits/stl_construct.h:75
  4031c0:	48 83 ec 18          	sub    $0x18,%rsp
  4031c4:	31 f6                	xor    %esi,%esi
  4031c6:	48 89 7c 24 10       	mov    %rdi,0x10(%rsp)
  4031cb:	48 8b 44 24 10       	mov    0x10(%rsp),%rax
  4031d0:	48 89 c1             	mov    %rax,%rcx
  4031d3:	48 89 cf             	mov    %rcx,%rdi
  4031d6:	ba 18 00 00 00       	mov    $0x18,%edx
  4031db:	48 89 44 24 08       	mov    %rax,0x8(%rsp)
  4031e0:	e8 0b e1 ff ff       	callq  4012f0 <memset@plt>
  4031e5:	48 8b 7c 24 08       	mov    0x8(%rsp),%rdi
  4031ea:	e8 71 e9 ff ff       	callq  401b60 <_ZNSt6vectorIS_IiSaIiEESaIS1_EEC2Ev>
  4031ef:	48 83 c4 18          	add    $0x18,%rsp
  4031f3:	c3                   	retq   
  4031f4:	66 2e 0f 1f 84 00 00 	nopw   %cs:0x0(%rax,%rax,1)
  4031fb:	00 00 00 
  4031fe:	66 90                	xchg   %ax,%ax

0000000000403200 <_ZSt11__addressofISt6vectorIS0_IiSaIiEESaIS2_EEEPT_RS5_>:
_ZSt11__addressofISt6vectorIS0_IiSaIiEESaIS2_EEEPT_RS5_():
/usr/bin/../lib/gcc/x86_64-linux-gnu/9/../../../../include/c++/9/bits/move.h:48
  403200:	48 89 7c 24 f8       	mov    %rdi,-0x8(%rsp)
  403205:	48 8b 44 24 f8       	mov    -0x8(%rsp),%rax
  40320a:	c3                   	retq   
  40320b:	0f 1f 44 00 00       	nopl   0x0(%rax,%rax,1)

0000000000403210 <_ZSt8_DestroyIPSt6vectorIS0_IiSaIiEESaIS2_EEEvT_S6_>:
_ZSt8_DestroyIPSt6vectorIS0_IiSaIiEESaIS2_EEEvT_S6_():
/usr/bin/../lib/gcc/x86_64-linux-gnu/9/../../../../include/c++/9/bits/stl_construct.h:128
  403210:	48 83 ec 18          	sub    $0x18,%rsp
  403214:	48 89 7c 24 10       	mov    %rdi,0x10(%rsp)
  403219:	48 89 74 24 08       	mov    %rsi,0x8(%rsp)
/usr/bin/../lib/gcc/x86_64-linux-gnu/9/../../../../include/c++/9/bits/stl_construct.h:137
  40321e:	48 8b 7c 24 10       	mov    0x10(%rsp),%rdi
  403223:	48 8b 74 24 08       	mov    0x8(%rsp),%rsi
/usr/bin/../lib/gcc/x86_64-linux-gnu/9/../../../../include/c++/9/bits/stl_construct.h:136
  403228:	e8 13 00 00 00       	callq  403240 <_ZNSt12_Destroy_auxILb0EE9__destroyIPSt6vectorIS2_IiSaIiEESaIS4_EEEEvT_S8_>
/usr/bin/../lib/gcc/x86_64-linux-gnu/9/../../../../include/c++/9/bits/stl_construct.h:138
  40322d:	48 83 c4 18          	add    $0x18,%rsp
  403231:	c3                   	retq   
  403232:	66 2e 0f 1f 84 00 00 	nopw   %cs:0x0(%rax,%rax,1)
  403239:	00 00 00 
  40323c:	0f 1f 40 00          	nopl   0x0(%rax)

0000000000403240 <_ZNSt12_Destroy_auxILb0EE9__destroyIPSt6vectorIS2_IiSaIiEESaIS4_EEEEvT_S8_>:
_ZNSt12_Destroy_auxILb0EE9__destroyIPSt6vectorIS2_IiSaIiEESaIS4_EEEEvT_S8_():
/usr/bin/../lib/gcc/x86_64-linux-gnu/9/../../../../include/c++/9/bits/stl_construct.h:106
  403240:	48 83 ec 18          	sub    $0x18,%rsp
  403244:	48 89 7c 24 10       	mov    %rdi,0x10(%rsp)
  403249:	48 89 74 24 08       	mov    %rsi,0x8(%rsp)
/usr/bin/../lib/gcc/x86_64-linux-gnu/9/../../../../include/c++/9/bits/stl_construct.h:107
  40324e:	48 8b 44 24 10       	mov    0x10(%rsp),%rax
  403253:	48 3b 44 24 08       	cmp    0x8(%rsp),%rax
  403258:	74 22                	je     40327c <_ZNSt12_Destroy_auxILb0EE9__destroyIPSt6vectorIS2_IiSaIiEESaIS4_EEEEvT_S8_+0x3c>
/usr/bin/../lib/gcc/x86_64-linux-gnu/9/../../../../include/c++/9/bits/stl_construct.h:108
  40325a:	48 8b 7c 24 10       	mov    0x10(%rsp),%rdi
  40325f:	e8 9c ff ff ff       	callq  403200 <_ZSt11__addressofISt6vectorIS0_IiSaIiEESaIS2_EEEPT_RS5_>
  403264:	48 89 c7             	mov    %rax,%rdi
  403267:	e8 24 00 00 00       	callq  403290 <_ZSt8_DestroyISt6vectorIS0_IiSaIiEESaIS2_EEEvPT_>
/usr/bin/../lib/gcc/x86_64-linux-gnu/9/../../../../include/c++/9/bits/stl_construct.h:107
  40326c:	48 8b 44 24 10       	mov    0x10(%rsp),%rax
  403271:	48 83 c0 18          	add    $0x18,%rax
  403275:	48 89 44 24 10       	mov    %rax,0x10(%rsp)
  40327a:	eb d2                	jmp    40324e <_ZNSt12_Destroy_auxILb0EE9__destroyIPSt6vectorIS2_IiSaIiEESaIS4_EEEEvT_S8_+0xe>
/usr/bin/../lib/gcc/x86_64-linux-gnu/9/../../../../include/c++/9/bits/stl_construct.h:109
  40327c:	48 83 c4 18          	add    $0x18,%rsp
  403280:	c3                   	retq   
  403281:	66 2e 0f 1f 84 00 00 	nopw   %cs:0x0(%rax,%rax,1)
  403288:	00 00 00 
  40328b:	0f 1f 44 00 00       	nopl   0x0(%rax,%rax,1)

0000000000403290 <_ZSt8_DestroyISt6vectorIS0_IiSaIiEESaIS2_EEEvPT_>:
_ZSt8_DestroyISt6vectorIS0_IiSaIiEESaIS2_EEEvPT_():
/usr/bin/../lib/gcc/x86_64-linux-gnu/9/../../../../include/c++/9/bits/stl_construct.h:98
  403290:	50                   	push   %rax
  403291:	48 89 3c 24          	mov    %rdi,(%rsp)
  403295:	48 8b 3c 24          	mov    (%rsp),%rdi
  403299:	e8 22 f8 ff ff       	callq  402ac0 <_ZNSt6vectorIS_IiSaIiEESaIS1_EED2Ev>
  40329e:	58                   	pop    %rax
  40329f:	c3                   	retq   

00000000004032a0 <_ZNSt12_Vector_baseISt6vectorIS0_IiSaIiEESaIS2_EESaIS4_EE13_M_deallocateEPS4_m>:
_ZNSt12_Vector_baseISt6vectorIS0_IiSaIiEESaIS2_EESaIS4_EE13_M_deallocateEPS4_m():
/usr/bin/../lib/gcc/x86_64-linux-gnu/9/../../../../include/c++/9/bits/stl_vector.h:348
  4032a0:	48 83 ec 28          	sub    $0x28,%rsp
  4032a4:	48 89 7c 24 20       	mov    %rdi,0x20(%rsp)
  4032a9:	48 89 74 24 18       	mov    %rsi,0x18(%rsp)
  4032ae:	48 89 54 24 10       	mov    %rdx,0x10(%rsp)
  4032b3:	48 8b 44 24 20       	mov    0x20(%rsp),%rax
/usr/bin/../lib/gcc/x86_64-linux-gnu/9/../../../../include/c++/9/bits/stl_vector.h:350
  4032b8:	48 83 7c 24 18 00    	cmpq   $0x0,0x18(%rsp)
  4032be:	48 89 44 24 08       	mov    %rax,0x8(%rsp)
  4032c3:	74 17                	je     4032dc <_ZNSt12_Vector_baseISt6vectorIS0_IiSaIiEESaIS2_EESaIS4_EE13_M_deallocateEPS4_m+0x3c>
  4032c5:	48 8b 44 24 08       	mov    0x8(%rsp),%rax
/usr/bin/../lib/gcc/x86_64-linux-gnu/9/../../../../include/c++/9/bits/stl_vector.h:351
  4032ca:	48 8b 74 24 18       	mov    0x18(%rsp),%rsi
  4032cf:	48 8b 54 24 10       	mov    0x10(%rsp),%rdx
  4032d4:	48 89 c7             	mov    %rax,%rdi
  4032d7:	e8 14 00 00 00       	callq  4032f0 <_ZNSt16allocator_traitsISaISt6vectorIS0_IiSaIiEESaIS2_EEEE10deallocateERS5_PS4_m>
/usr/bin/../lib/gcc/x86_64-linux-gnu/9/../../../../include/c++/9/bits/stl_vector.h:352
  4032dc:	48 83 c4 28          	add    $0x28,%rsp
  4032e0:	c3                   	retq   
  4032e1:	66 2e 0f 1f 84 00 00 	nopw   %cs:0x0(%rax,%rax,1)
  4032e8:	00 00 00 
  4032eb:	0f 1f 44 00 00       	nopl   0x0(%rax,%rax,1)

00000000004032f0 <_ZNSt16allocator_traitsISaISt6vectorIS0_IiSaIiEESaIS2_EEEE10deallocateERS5_PS4_m>:
_ZNSt16allocator_traitsISaISt6vectorIS0_IiSaIiEESaIS2_EEEE10deallocateERS5_PS4_m():
/usr/bin/../lib/gcc/x86_64-linux-gnu/9/../../../../include/c++/9/bits/alloc_traits.h:470
  4032f0:	48 83 ec 18          	sub    $0x18,%rsp
  4032f4:	48 89 7c 24 10       	mov    %rdi,0x10(%rsp)
  4032f9:	48 89 74 24 08       	mov    %rsi,0x8(%rsp)
  4032fe:	48 89 14 24          	mov    %rdx,(%rsp)
  403302:	48 8b 44 24 10       	mov    0x10(%rsp),%rax
  403307:	48 8b 74 24 08       	mov    0x8(%rsp),%rsi
  40330c:	48 8b 14 24          	mov    (%rsp),%rdx
  403310:	48 89 c7             	mov    %rax,%rdi
  403313:	e8 08 00 00 00       	callq  403320 <_ZN9__gnu_cxx13new_allocatorISt6vectorIS1_IiSaIiEESaIS3_EEE10deallocateEPS5_m>
  403318:	48 83 c4 18          	add    $0x18,%rsp
  40331c:	c3                   	retq   
  40331d:	0f 1f 00             	nopl   (%rax)

0000000000403320 <_ZN9__gnu_cxx13new_allocatorISt6vectorIS1_IiSaIiEESaIS3_EEE10deallocateEPS5_m>:
_ZN9__gnu_cxx13new_allocatorISt6vectorIS1_IiSaIiEESaIS3_EEE10deallocateEPS5_m():
/usr/bin/../lib/gcc/x86_64-linux-gnu/9/../../../../include/c++/9/ext/new_allocator.h:120
  403320:	48 83 ec 18          	sub    $0x18,%rsp
  403324:	48 89 7c 24 10       	mov    %rdi,0x10(%rsp)
  403329:	48 89 74 24 08       	mov    %rsi,0x8(%rsp)
  40332e:	48 89 14 24          	mov    %rdx,(%rsp)
/usr/bin/../lib/gcc/x86_64-linux-gnu/9/../../../../include/c++/9/ext/new_allocator.h:128
  403332:	48 8b 44 24 08       	mov    0x8(%rsp),%rax
  403337:	48 89 c7             	mov    %rax,%rdi
  40333a:	e8 31 e0 ff ff       	callq  401370 <_ZdlPv@plt>
/usr/bin/../lib/gcc/x86_64-linux-gnu/9/../../../../include/c++/9/ext/new_allocator.h:129
  40333f:	48 83 c4 18          	add    $0x18,%rsp
  403343:	c3                   	retq   
  403344:	66 2e 0f 1f 84 00 00 	nopw   %cs:0x0(%rax,%rax,1)
  40334b:	00 00 00 
  40334e:	66 90                	xchg   %ax,%ax

0000000000403350 <_ZNSt6vectorIS_IS_IiSaIiEESaIS1_EESaIS3_EED2Ev>:
~vector():
/usr/bin/../lib/gcc/x86_64-linux-gnu/9/../../../../include/c++/9/bits/stl_vector.h:676
  403350:	48 83 ec 38          	sub    $0x38,%rsp
  403354:	48 89 7c 24 30       	mov    %rdi,0x30(%rsp)
  403359:	48 8b 44 24 30       	mov    0x30(%rsp),%rax
/usr/bin/../lib/gcc/x86_64-linux-gnu/9/../../../../include/c++/9/bits/stl_vector.h:677
  40335e:	48 8b 38             	mov    (%rax),%rdi
  403361:	48 8b 70 08          	mov    0x8(%rax),%rsi
  403365:	48 89 7c 24 18       	mov    %rdi,0x18(%rsp)
/usr/bin/../lib/gcc/x86_64-linux-gnu/9/../../../../include/c++/9/bits/stl_vector.h:678
  40336a:	48 89 c7             	mov    %rax,%rdi
  40336d:	48 89 44 24 10       	mov    %rax,0x10(%rsp)
  403372:	48 89 74 24 08       	mov    %rsi,0x8(%rsp)
  403377:	e8 44 fd ff ff       	callq  4030c0 <_ZNSt12_Vector_baseISt6vectorIS0_IiSaIiEESaIS2_EESaIS4_EE19_M_get_Tp_allocatorEv>
  40337c:	48 8b 7c 24 18       	mov    0x18(%rsp),%rdi
  403381:	48 8b 74 24 08       	mov    0x8(%rsp),%rsi
/usr/bin/../lib/gcc/x86_64-linux-gnu/9/../../../../include/c++/9/bits/stl_vector.h:677
  403386:	48 89 c2             	mov    %rax,%rdx
  403389:	e8 42 00 00 00       	callq  4033d0 <_ZSt8_DestroyIPSt6vectorIS0_IiSaIiEESaIS2_EES4_EvT_S6_RSaIT0_E>
  40338e:	eb 00                	jmp    403390 <_ZNSt6vectorIS_IS_IiSaIiEESaIS1_EESaIS3_EED2Ev+0x40>
  403390:	48 8b 44 24 10       	mov    0x10(%rsp),%rax
/usr/bin/../lib/gcc/x86_64-linux-gnu/9/../../../../include/c++/9/bits/stl_vector.h:680
  403395:	48 89 c7             	mov    %rax,%rdi
  403398:	e8 a3 f9 ff ff       	callq  402d40 <_ZNSt12_Vector_baseISt6vectorIS0_IiSaIiEESaIS2_EESaIS4_EED2Ev>
  40339d:	48 83 c4 38          	add    $0x38,%rsp
  4033a1:	c3                   	retq   
  4033a2:	48 89 44 24 28       	mov    %rax,0x28(%rsp)
  4033a7:	89 54 24 24          	mov    %edx,0x24(%rsp)
  4033ab:	48 8b 44 24 10       	mov    0x10(%rsp),%rax
  4033b0:	48 89 c7             	mov    %rax,%rdi
  4033b3:	e8 88 f9 ff ff       	callq  402d40 <_ZNSt12_Vector_baseISt6vectorIS0_IiSaIiEESaIS2_EESaIS4_EED2Ev>
  4033b8:	48 8b 7c 24 28       	mov    0x28(%rsp),%rdi
  4033bd:	e8 de fa ff ff       	callq  402ea0 <__clang_call_terminate>
_ZNSt6vectorIS_IS_IiSaIiEESaIS1_EESaIS3_EED2Ev():
  4033c2:	66 2e 0f 1f 84 00 00 	nopw   %cs:0x0(%rax,%rax,1)
  4033c9:	00 00 00 
  4033cc:	0f 1f 40 00          	nopl   0x0(%rax)

00000000004033d0 <_ZSt8_DestroyIPSt6vectorIS0_IiSaIiEESaIS2_EES4_EvT_S6_RSaIT0_E>:
_ZSt8_DestroyIPSt6vectorIS0_IiSaIiEESaIS2_EES4_EvT_S6_RSaIT0_E():
/usr/bin/../lib/gcc/x86_64-linux-gnu/9/../../../../include/c++/9/bits/stl_construct.h:205
  4033d0:	48 83 ec 18          	sub    $0x18,%rsp
  4033d4:	48 89 7c 24 10       	mov    %rdi,0x10(%rsp)
  4033d9:	48 89 74 24 08       	mov    %rsi,0x8(%rsp)
  4033de:	48 89 14 24          	mov    %rdx,(%rsp)
/usr/bin/../lib/gcc/x86_64-linux-gnu/9/../../../../include/c++/9/bits/stl_construct.h:206
  4033e2:	48 8b 7c 24 10       	mov    0x10(%rsp),%rdi
  4033e7:	48 8b 74 24 08       	mov    0x8(%rsp),%rsi
  4033ec:	e8 1f fe ff ff       	callq  403210 <_ZSt8_DestroyIPSt6vectorIS0_IiSaIiEESaIS2_EEEvT_S6_>
/usr/bin/../lib/gcc/x86_64-linux-gnu/9/../../../../include/c++/9/bits/stl_construct.h:207
  4033f1:	48 83 c4 18          	add    $0x18,%rsp
  4033f5:	c3                   	retq   
  4033f6:	66 2e 0f 1f 84 00 00 	nopw   %cs:0x0(%rax,%rax,1)
  4033fd:	00 00 00 

0000000000403400 <_ZNSt12_Vector_baseISt6vectorIiSaIiEESaIS2_EEC2Ev>:
_Vector_base():
/usr/bin/../lib/gcc/x86_64-linux-gnu/9/../../../../include/c++/9/bits/stl_vector.h:285
  403400:	50                   	push   %rax
  403401:	48 89 3c 24          	mov    %rdi,(%rsp)
  403405:	48 8b 3c 24          	mov    (%rsp),%rdi
  403409:	e8 02 00 00 00       	callq  403410 <_ZNSt12_Vector_baseISt6vectorIiSaIiEESaIS2_EE12_Vector_implC2Ev>
  40340e:	58                   	pop    %rax
  40340f:	c3                   	retq   

0000000000403410 <_ZNSt12_Vector_baseISt6vectorIiSaIiEESaIS2_EE12_Vector_implC2Ev>:
_Vector_impl():
/usr/bin/../lib/gcc/x86_64-linux-gnu/9/../../../../include/c++/9/bits/stl_vector.h:131
  403410:	48 83 ec 18          	sub    $0x18,%rsp
  403414:	48 89 7c 24 10       	mov    %rdi,0x10(%rsp)
  403419:	48 8b 44 24 10       	mov    0x10(%rsp),%rax
  40341e:	48 89 c1             	mov    %rax,%rcx
/usr/bin/../lib/gcc/x86_64-linux-gnu/9/../../../../include/c++/9/bits/stl_vector.h:130
  403421:	48 89 cf             	mov    %rcx,%rdi
  403424:	48 89 44 24 08       	mov    %rax,0x8(%rsp)
  403429:	e8 12 00 00 00       	callq  403440 <_ZNSaISt6vectorIiSaIiEEEC2Ev>
  40342e:	48 8b 44 24 08       	mov    0x8(%rsp),%rax
/usr/bin/../lib/gcc/x86_64-linux-gnu/9/../../../../include/c++/9/bits/stl_vector.h:128
  403433:	48 89 c7             	mov    %rax,%rdi
  403436:	e8 25 00 00 00       	callq  403460 <_ZNSt12_Vector_baseISt6vectorIiSaIiEESaIS2_EE17_Vector_impl_dataC2Ev>
/usr/bin/../lib/gcc/x86_64-linux-gnu/9/../../../../include/c++/9/bits/stl_vector.h:131
  40343b:	48 83 c4 18          	add    $0x18,%rsp
  40343f:	c3                   	retq   

0000000000403440 <_ZNSaISt6vectorIiSaIiEEEC2Ev>:
allocator():
/usr/bin/../lib/gcc/x86_64-linux-gnu/9/../../../../include/c++/9/bits/allocator.h:138
  403440:	50                   	push   %rax
  403441:	48 89 3c 24          	mov    %rdi,(%rsp)
  403445:	48 8b 04 24          	mov    (%rsp),%rax
  403449:	48 89 c7             	mov    %rax,%rdi
  40344c:	e8 3f 00 00 00       	callq  403490 <_ZN9__gnu_cxx13new_allocatorISt6vectorIiSaIiEEEC2Ev>
  403451:	58                   	pop    %rax
  403452:	c3                   	retq   
_ZNSaISt6vectorIiSaIiEEEC2Ev():
  403453:	66 2e 0f 1f 84 00 00 	nopw   %cs:0x0(%rax,%rax,1)
  40345a:	00 00 00 
  40345d:	0f 1f 00             	nopl   (%rax)

0000000000403460 <_ZNSt12_Vector_baseISt6vectorIiSaIiEESaIS2_EE17_Vector_impl_dataC2Ev>:
_Vector_impl_data():
/usr/bin/../lib/gcc/x86_64-linux-gnu/9/../../../../include/c++/9/bits/stl_vector.h:96
  403460:	48 89 7c 24 f8       	mov    %rdi,-0x8(%rsp)
  403465:	48 8b 44 24 f8       	mov    -0x8(%rsp),%rax
/usr/bin/../lib/gcc/x86_64-linux-gnu/9/../../../../include/c++/9/bits/stl_vector.h:95
  40346a:	48 c7 00 00 00 00 00 	movq   $0x0,(%rax)
  403471:	48 c7 40 08 00 00 00 	movq   $0x0,0x8(%rax)
  403478:	00 
  403479:	48 c7 40 10 00 00 00 	movq   $0x0,0x10(%rax)
  403480:	00 
/usr/bin/../lib/gcc/x86_64-linux-gnu/9/../../../../include/c++/9/bits/stl_vector.h:96
  403481:	c3                   	retq   
_ZNSt12_Vector_baseISt6vectorIiSaIiEESaIS2_EE17_Vector_impl_dataC2Ev():
  403482:	66 2e 0f 1f 84 00 00 	nopw   %cs:0x0(%rax,%rax,1)
  403489:	00 00 00 
  40348c:	0f 1f 40 00          	nopl   0x0(%rax)

0000000000403490 <_ZN9__gnu_cxx13new_allocatorISt6vectorIiSaIiEEEC2Ev>:
new_allocator():
/usr/bin/../lib/gcc/x86_64-linux-gnu/9/../../../../include/c++/9/ext/new_allocator.h:80
  403490:	48 89 7c 24 f8       	mov    %rdi,-0x8(%rsp)
  403495:	c3                   	retq   
_ZN9__gnu_cxx13new_allocatorISt6vectorIiSaIiEEEC2Ev():
  403496:	66 2e 0f 1f 84 00 00 	nopw   %cs:0x0(%rax,%rax,1)
  40349d:	00 00 00 

00000000004034a0 <_ZNSt6atomicIjEC2Ej>:
atomic():
/usr/bin/../lib/gcc/x86_64-linux-gnu/9/../../../../include/c++/9/atomic:782
  4034a0:	48 83 ec 18          	sub    $0x18,%rsp
  4034a4:	48 89 7c 24 10       	mov    %rdi,0x10(%rsp)
  4034a9:	89 74 24 0c          	mov    %esi,0xc(%rsp)
  4034ad:	48 8b 44 24 10       	mov    0x10(%rsp),%rax
  4034b2:	8b 74 24 0c          	mov    0xc(%rsp),%esi
  4034b6:	48 89 c7             	mov    %rax,%rdi
  4034b9:	e8 b2 01 00 00       	callq  403670 <_ZNSt13__atomic_baseIjEC2Ej>
  4034be:	48 83 c4 18          	add    $0x18,%rsp
  4034c2:	c3                   	retq   
_ZNSt6atomicIjEC2Ej():
  4034c3:	66 2e 0f 1f 84 00 00 	nopw   %cs:0x0(%rax,%rax,1)
  4034ca:	00 00 00 
  4034cd:	0f 1f 00             	nopl   (%rax)

00000000004034d0 <_ZNSt6atomicIiEC2Ei>:
atomic():
/usr/bin/../lib/gcc/x86_64-linux-gnu/9/../../../../include/c++/9/atomic:759
  4034d0:	48 83 ec 18          	sub    $0x18,%rsp
  4034d4:	48 89 7c 24 10       	mov    %rdi,0x10(%rsp)
  4034d9:	89 74 24 0c          	mov    %esi,0xc(%rsp)
  4034dd:	48 8b 44 24 10       	mov    0x10(%rsp),%rax
  4034e2:	8b 74 24 0c          	mov    0xc(%rsp),%esi
  4034e6:	48 89 c7             	mov    %rax,%rdi
  4034e9:	e8 a2 01 00 00       	callq  403690 <_ZNSt13__atomic_baseIiEC2Ei>
  4034ee:	48 83 c4 18          	add    $0x18,%rsp
  4034f2:	c3                   	retq   
_ZNSt6atomicIiEC2Ei():
  4034f3:	66 2e 0f 1f 84 00 00 	nopw   %cs:0x0(%rax,%rax,1)
  4034fa:	00 00 00 
  4034fd:	0f 1f 00             	nopl   (%rax)

0000000000403500 <_ZSt11make_uniqueIA_St11atomic_flagENSt9_MakeUniqIT_E7__arrayEm>:
_ZSt11make_uniqueIA_St11atomic_flagENSt9_MakeUniqIT_E7__arrayEm():
/usr/bin/../lib/gcc/x86_64-linux-gnu/9/../../../../include/c++/9/bits/unique_ptr.h:863
  403500:	48 83 ec 38          	sub    $0x38,%rsp
  403504:	48 89 f8             	mov    %rdi,%rax
  403507:	48 89 f9             	mov    %rdi,%rcx
  40350a:	48 89 4c 24 30       	mov    %rcx,0x30(%rsp)
  40350f:	48 89 74 24 28       	mov    %rsi,0x28(%rsp)
  403514:	48 8b 4c 24 28       	mov    0x28(%rsp),%rcx
  403519:	48 89 7c 24 20       	mov    %rdi,0x20(%rsp)
  40351e:	48 89 cf             	mov    %rcx,%rdi
  403521:	48 89 44 24 18       	mov    %rax,0x18(%rsp)
  403526:	48 89 4c 24 10       	mov    %rcx,0x10(%rsp)
  40352b:	e8 20 de ff ff       	callq  401350 <_Znam@plt>
  403530:	31 f6                	xor    %esi,%esi
  403532:	48 89 c1             	mov    %rax,%rcx
  403535:	48 89 cf             	mov    %rcx,%rdi
  403538:	48 8b 54 24 10       	mov    0x10(%rsp),%rdx
  40353d:	48 89 44 24 08       	mov    %rax,0x8(%rsp)
  403542:	e8 a9 dd ff ff       	callq  4012f0 <memset@plt>
  403547:	48 8b 7c 24 20       	mov    0x20(%rsp),%rdi
  40354c:	48 8b 74 24 08       	mov    0x8(%rsp),%rsi
  403551:	e8 5a 01 00 00       	callq  4036b0 <_ZNSt10unique_ptrIA_St11atomic_flagSt14default_deleteIS1_EEC2IPS0_S3_vbEET_>
  403556:	48 8b 44 24 18       	mov    0x18(%rsp),%rax
  40355b:	48 83 c4 38          	add    $0x38,%rsp
  40355f:	c3                   	retq   

0000000000403560 <_ZNSt10unique_ptrIA_St6atomicIiESt14default_deleteIS2_EEC2IS4_vEEv>:
unique_ptr<std::default_delete<std::atomic<int> []>, void>():
/usr/bin/../lib/gcc/x86_64-linux-gnu/9/../../../../include/c++/9/bits/unique_ptr.h:478
  403560:	48 83 ec 18          	sub    $0x18,%rsp
  403564:	48 89 7c 24 10       	mov    %rdi,0x10(%rsp)
  403569:	48 8b 44 24 10       	mov    0x10(%rsp),%rax
/usr/bin/../lib/gcc/x86_64-linux-gnu/9/../../../../include/c++/9/bits/unique_ptr.h:477
  40356e:	48 c7 00 00 00 00 00 	movq   $0x0,(%rax)
  403575:	48 89 c7             	mov    %rax,%rdi
  403578:	e8 c3 02 00 00       	callq  403840 <_ZNSt15__uniq_ptr_implISt6atomicIiESt14default_deleteIA_S1_EEC2Ev>
  40357d:	eb 00                	jmp    40357f <_ZNSt10unique_ptrIA_St6atomicIiESt14default_deleteIS2_EEC2IS4_vEEv+0x1f>
/usr/bin/../lib/gcc/x86_64-linux-gnu/9/../../../../include/c++/9/bits/unique_ptr.h:478
  40357f:	48 83 c4 18          	add    $0x18,%rsp
  403583:	c3                   	retq   
/usr/bin/../lib/gcc/x86_64-linux-gnu/9/../../../../include/c++/9/bits/unique_ptr.h:477
  403584:	48 89 c7             	mov    %rax,%rdi
  403587:	89 54 24 0c          	mov    %edx,0xc(%rsp)
  40358b:	e8 10 f9 ff ff       	callq  402ea0 <__clang_call_terminate>

0000000000403590 <_ZNSt6vectorIiSaIiEEC2Ev>:
vector():
/usr/bin/../lib/gcc/x86_64-linux-gnu/9/../../../../include/c++/9/bits/stl_vector.h:484
  403590:	50                   	push   %rax
  403591:	48 89 3c 24          	mov    %rdi,(%rsp)
  403595:	48 8b 04 24          	mov    (%rsp),%rax
  403599:	48 89 c7             	mov    %rax,%rdi
  40359c:	e8 4f 03 00 00       	callq  4038f0 <_ZNSt12_Vector_baseIiSaIiEEC2Ev>
  4035a1:	58                   	pop    %rax
  4035a2:	c3                   	retq   
_ZNSt6vectorIiSaIiEEC2Ev():
  4035a3:	66 2e 0f 1f 84 00 00 	nopw   %cs:0x0(%rax,%rax,1)
  4035aa:	00 00 00 
  4035ad:	0f 1f 00             	nopl   (%rax)

00000000004035b0 <_ZNSt13__atomic_baseIjEaSEj>:
_ZNSt13__atomic_baseIjEaSEj():
/usr/bin/../lib/gcc/x86_64-linux-gnu/9/../../../../include/c++/9/bits/atomic_base.h:289
  4035b0:	48 83 ec 48          	sub    $0x48,%rsp
  4035b4:	48 89 7c 24 28       	mov    %rdi,0x28(%rsp)
  4035b9:	89 74 24 24          	mov    %esi,0x24(%rsp)
  4035bd:	48 8b 44 24 28       	mov    0x28(%rsp),%rax
/usr/bin/../lib/gcc/x86_64-linux-gnu/9/../../../../include/c++/9/bits/atomic_base.h:290
  4035c2:	8b 4c 24 24          	mov    0x24(%rsp),%ecx
  4035c6:	48 89 44 24 40       	mov    %rax,0x40(%rsp)
  4035cb:	89 4c 24 3c          	mov    %ecx,0x3c(%rsp)
  4035cf:	c7 44 24 38 05 00 00 	movl   $0x5,0x38(%rsp)
  4035d6:	00 
  4035d7:	48 8b 44 24 40       	mov    0x40(%rsp),%rax
/usr/bin/../lib/gcc/x86_64-linux-gnu/9/../../../../include/c++/9/bits/atomic_base.h:392
  4035dc:	8b 7c 24 38          	mov    0x38(%rsp),%edi
  4035e0:	be ff ff 00 00       	mov    $0xffff,%esi
  4035e5:	48 89 44 24 18       	mov    %rax,0x18(%rsp)
  4035ea:	e8 81 03 00 00       	callq  403970 <_ZStanSt12memory_orderSt23__memory_order_modifier>
  4035ef:	89 44 24 14          	mov    %eax,0x14(%rsp)
  4035f3:	eb 00                	jmp    4035f5 <_ZNSt13__atomic_baseIjEaSEj+0x45>
  4035f5:	8b 44 24 14          	mov    0x14(%rsp),%eax
  4035f9:	89 44 24 34          	mov    %eax,0x34(%rsp)
  4035fd:	48 8b 4c 24 18       	mov    0x18(%rsp),%rcx
/usr/bin/../lib/gcc/x86_64-linux-gnu/9/../../../../include/c++/9/bits/atomic_base.h:397
  403602:	8b 54 24 38          	mov    0x38(%rsp),%edx
  403606:	8b 74 24 3c          	mov    0x3c(%rsp),%esi
  40360a:	89 74 24 30          	mov    %esi,0x30(%rsp)
  40360e:	89 d6                	mov    %edx,%esi
  403610:	83 ee 03             	sub    $0x3,%esi
  403613:	48 89 4c 24 08       	mov    %rcx,0x8(%rsp)
  403618:	89 54 24 04          	mov    %edx,0x4(%rsp)
  40361c:	74 1a                	je     403638 <_ZNSt13__atomic_baseIjEaSEj+0x88>
  40361e:	eb 00                	jmp    403620 <_ZNSt13__atomic_baseIjEaSEj+0x70>
  403620:	8b 44 24 04          	mov    0x4(%rsp),%eax
  403624:	83 e8 05             	sub    $0x5,%eax
  403627:	74 1c                	je     403645 <_ZNSt13__atomic_baseIjEaSEj+0x95>
  403629:	eb 00                	jmp    40362b <_ZNSt13__atomic_baseIjEaSEj+0x7b>
  40362b:	8b 44 24 30          	mov    0x30(%rsp),%eax
  40362f:	48 8b 4c 24 08       	mov    0x8(%rsp),%rcx
  403634:	89 01                	mov    %eax,(%rcx)
  403636:	eb 25                	jmp    40365d <_ZNSt13__atomic_baseIjEaSEj+0xad>
  403638:	8b 44 24 30          	mov    0x30(%rsp),%eax
  40363c:	48 8b 4c 24 08       	mov    0x8(%rsp),%rcx
  403641:	89 01                	mov    %eax,(%rcx)
  403643:	eb 18                	jmp    40365d <_ZNSt13__atomic_baseIjEaSEj+0xad>
  403645:	8b 44 24 30          	mov    0x30(%rsp),%eax
  403649:	48 8b 4c 24 08       	mov    0x8(%rsp),%rcx
  40364e:	87 01                	xchg   %eax,(%rcx)
  403650:	eb 0b                	jmp    40365d <_ZNSt13__atomic_baseIjEaSEj+0xad>
/usr/bin/../lib/gcc/x86_64-linux-gnu/9/../../../../include/c++/9/bits/atomic_base.h:392
  403652:	48 89 c7             	mov    %rax,%rdi
  403655:	89 14 24             	mov    %edx,(%rsp)
  403658:	e8 43 f8 ff ff       	callq  402ea0 <__clang_call_terminate>
/usr/bin/../lib/gcc/x86_64-linux-gnu/9/../../../../include/c++/9/bits/atomic_base.h:291
  40365d:	8b 44 24 24          	mov    0x24(%rsp),%eax
  403661:	48 83 c4 48          	add    $0x48,%rsp
  403665:	c3                   	retq   
  403666:	66 2e 0f 1f 84 00 00 	nopw   %cs:0x0(%rax,%rax,1)
  40366d:	00 00 00 

0000000000403670 <_ZNSt13__atomic_baseIjEC2Ej>:
__atomic_base():
/usr/bin/../lib/gcc/x86_64-linux-gnu/9/../../../../include/c++/9/bits/atomic_base.h:279
  403670:	48 89 7c 24 f8       	mov    %rdi,-0x8(%rsp)
  403675:	89 74 24 f4          	mov    %esi,-0xc(%rsp)
  403679:	48 8b 44 24 f8       	mov    -0x8(%rsp),%rax
  40367e:	8b 4c 24 f4          	mov    -0xc(%rsp),%ecx
  403682:	89 08                	mov    %ecx,(%rax)
  403684:	c3                   	retq   
_ZNSt13__atomic_baseIjEC2Ej():
  403685:	66 2e 0f 1f 84 00 00 	nopw   %cs:0x0(%rax,%rax,1)
  40368c:	00 00 00 
  40368f:	90                   	nop

0000000000403690 <_ZNSt13__atomic_baseIiEC2Ei>:
__atomic_base():
/usr/bin/../lib/gcc/x86_64-linux-gnu/9/../../../../include/c++/9/bits/atomic_base.h:279
  403690:	48 89 7c 24 f8       	mov    %rdi,-0x8(%rsp)
  403695:	89 74 24 f4          	mov    %esi,-0xc(%rsp)
  403699:	48 8b 44 24 f8       	mov    -0x8(%rsp),%rax
  40369e:	8b 4c 24 f4          	mov    -0xc(%rsp),%ecx
  4036a2:	89 08                	mov    %ecx,(%rax)
  4036a4:	c3                   	retq   
_ZNSt13__atomic_baseIiEC2Ei():
  4036a5:	66 2e 0f 1f 84 00 00 	nopw   %cs:0x0(%rax,%rax,1)
  4036ac:	00 00 00 
  4036af:	90                   	nop

00000000004036b0 <_ZNSt10unique_ptrIA_St11atomic_flagSt14default_deleteIS1_EEC2IPS0_S3_vbEET_>:
unique_ptr<std::atomic_flag *, std::default_delete<std::atomic_flag []>, void, bool>():
/usr/bin/../lib/gcc/x86_64-linux-gnu/9/../../../../include/c++/9/bits/unique_ptr.h:495
  4036b0:	48 83 ec 18          	sub    $0x18,%rsp
  4036b4:	48 89 7c 24 10       	mov    %rdi,0x10(%rsp)
  4036b9:	48 89 74 24 08       	mov    %rsi,0x8(%rsp)
  4036be:	48 8b 7c 24 10       	mov    0x10(%rsp),%rdi
/usr/bin/../lib/gcc/x86_64-linux-gnu/9/../../../../include/c++/9/bits/unique_ptr.h:494
  4036c3:	48 8b 74 24 08       	mov    0x8(%rsp),%rsi
  4036c8:	e8 13 00 00 00       	callq  4036e0 <_ZNSt15__uniq_ptr_implISt11atomic_flagSt14default_deleteIA_S0_EEC2EPS0_>
  4036cd:	eb 00                	jmp    4036cf <_ZNSt10unique_ptrIA_St11atomic_flagSt14default_deleteIS1_EEC2IPS0_S3_vbEET_+0x1f>
/usr/bin/../lib/gcc/x86_64-linux-gnu/9/../../../../include/c++/9/bits/unique_ptr.h:495
  4036cf:	48 83 c4 18          	add    $0x18,%rsp
  4036d3:	c3                   	retq   
/usr/bin/../lib/gcc/x86_64-linux-gnu/9/../../../../include/c++/9/bits/unique_ptr.h:494
  4036d4:	48 89 c7             	mov    %rax,%rdi
  4036d7:	89 54 24 04          	mov    %edx,0x4(%rsp)
  4036db:	e8 c0 f7 ff ff       	callq  402ea0 <__clang_call_terminate>

00000000004036e0 <_ZNSt15__uniq_ptr_implISt11atomic_flagSt14default_deleteIA_S0_EEC2EPS0_>:
__uniq_ptr_impl():
/usr/bin/../lib/gcc/x86_64-linux-gnu/9/../../../../include/c++/9/bits/unique_ptr.h:147
  4036e0:	48 83 ec 28          	sub    $0x28,%rsp
  4036e4:	48 89 7c 24 20       	mov    %rdi,0x20(%rsp)
  4036e9:	48 89 74 24 18       	mov    %rsi,0x18(%rsp)
  4036ee:	48 8b 44 24 20       	mov    0x20(%rsp),%rax
  4036f3:	48 89 c7             	mov    %rax,%rdi
  4036f6:	48 89 44 24 10       	mov    %rax,0x10(%rsp)
  4036fb:	e8 30 00 00 00       	callq  403730 <_ZNSt5tupleIJPSt11atomic_flagSt14default_deleteIA_S0_EEEC2IS1_S4_Lb1EEEv>
  403700:	48 8b 44 24 18       	mov    0x18(%rsp),%rax
  403705:	48 8b 7c 24 10       	mov    0x10(%rsp),%rdi
  40370a:	48 89 44 24 08       	mov    %rax,0x8(%rsp)
  40370f:	e8 3c 00 00 00       	callq  403750 <_ZNSt15__uniq_ptr_implISt11atomic_flagSt14default_deleteIA_S0_EE6_M_ptrEv>
  403714:	48 8b 4c 24 08       	mov    0x8(%rsp),%rcx
  403719:	48 89 08             	mov    %rcx,(%rax)
  40371c:	48 83 c4 28          	add    $0x28,%rsp
  403720:	c3                   	retq   
_ZNSt15__uniq_ptr_implISt11atomic_flagSt14default_deleteIA_S0_EEC2EPS0_():
  403721:	66 2e 0f 1f 84 00 00 	nopw   %cs:0x0(%rax,%rax,1)
  403728:	00 00 00 
  40372b:	0f 1f 44 00 00       	nopl   0x0(%rax,%rax,1)

0000000000403730 <_ZNSt5tupleIJPSt11atomic_flagSt14default_deleteIA_S0_EEEC2IS1_S4_Lb1EEEv>:
tuple<std::atomic_flag *, std::default_delete<std::atomic_flag []>, true>():
/usr/bin/../lib/gcc/x86_64-linux-gnu/9/../../../../include/c++/9/tuple:919
  403730:	50                   	push   %rax
  403731:	48 89 3c 24          	mov    %rdi,(%rsp)
  403735:	48 8b 04 24          	mov    (%rsp),%rax
  403739:	48 89 c7             	mov    %rax,%rdi
  40373c:	e8 1f 00 00 00       	callq  403760 <_ZNSt11_Tuple_implILm0EJPSt11atomic_flagSt14default_deleteIA_S0_EEEC2Ev>
  403741:	58                   	pop    %rax
  403742:	c3                   	retq   
_ZNSt5tupleIJPSt11atomic_flagSt14default_deleteIA_S0_EEEC2IS1_S4_Lb1EEEv():
  403743:	66 2e 0f 1f 84 00 00 	nopw   %cs:0x0(%rax,%rax,1)
  40374a:	00 00 00 
  40374d:	0f 1f 00             	nopl   (%rax)

0000000000403750 <_ZNSt15__uniq_ptr_implISt11atomic_flagSt14default_deleteIA_S0_EE6_M_ptrEv>:
_ZNSt15__uniq_ptr_implISt11atomic_flagSt14default_deleteIA_S0_EE6_M_ptrEv():
/usr/bin/../lib/gcc/x86_64-linux-gnu/9/../../../../include/c++/9/bits/unique_ptr.h:153
  403750:	50                   	push   %rax
  403751:	48 89 3c 24          	mov    %rdi,(%rsp)
  403755:	48 8b 3c 24          	mov    (%rsp),%rdi
  403759:	e8 82 00 00 00       	callq  4037e0 <_ZSt3getILm0EJPSt11atomic_flagSt14default_deleteIA_S0_EEERNSt13tuple_elementIXT_ESt5tupleIJDpT0_EEE4typeERS9_>
  40375e:	59                   	pop    %rcx
  40375f:	c3                   	retq   

0000000000403760 <_ZNSt11_Tuple_implILm0EJPSt11atomic_flagSt14default_deleteIA_S0_EEEC2Ev>:
_Tuple_impl():
/usr/bin/../lib/gcc/x86_64-linux-gnu/9/../../../../include/c++/9/tuple:207
  403760:	48 83 ec 18          	sub    $0x18,%rsp
  403764:	48 89 7c 24 10       	mov    %rdi,0x10(%rsp)
  403769:	48 8b 44 24 10       	mov    0x10(%rsp),%rax
  40376e:	48 89 c1             	mov    %rax,%rcx
  403771:	48 89 cf             	mov    %rcx,%rdi
  403774:	48 89 44 24 08       	mov    %rax,0x8(%rsp)
  403779:	e8 12 00 00 00       	callq  403790 <_ZNSt11_Tuple_implILm1EJSt14default_deleteIA_St11atomic_flagEEEC2Ev>
  40377e:	48 8b 44 24 08       	mov    0x8(%rsp),%rax
  403783:	48 89 c7             	mov    %rax,%rdi
  403786:	e8 25 00 00 00       	callq  4037b0 <_ZNSt10_Head_baseILm0EPSt11atomic_flagLb0EEC2Ev>
  40378b:	48 83 c4 18          	add    $0x18,%rsp
  40378f:	c3                   	retq   

0000000000403790 <_ZNSt11_Tuple_implILm1EJSt14default_deleteIA_St11atomic_flagEEEC2Ev>:
/usr/bin/../lib/gcc/x86_64-linux-gnu/9/../../../../include/c++/9/tuple:340
  403790:	50                   	push   %rax
  403791:	48 89 3c 24          	mov    %rdi,(%rsp)
  403795:	48 8b 04 24          	mov    (%rsp),%rax
  403799:	48 89 c7             	mov    %rax,%rdi
  40379c:	e8 2f 00 00 00       	callq  4037d0 <_ZNSt10_Head_baseILm1ESt14default_deleteIA_St11atomic_flagELb1EEC2Ev>
  4037a1:	58                   	pop    %rax
  4037a2:	c3                   	retq   
_ZNSt11_Tuple_implILm1EJSt14default_deleteIA_St11atomic_flagEEEC2Ev():
  4037a3:	66 2e 0f 1f 84 00 00 	nopw   %cs:0x0(%rax,%rax,1)
  4037aa:	00 00 00 
  4037ad:	0f 1f 00             	nopl   (%rax)

00000000004037b0 <_ZNSt10_Head_baseILm0EPSt11atomic_flagLb0EEC2Ev>:
_Head_base():
/usr/bin/../lib/gcc/x86_64-linux-gnu/9/../../../../include/c++/9/tuple:123
  4037b0:	48 89 7c 24 f8       	mov    %rdi,-0x8(%rsp)
  4037b5:	48 8b 44 24 f8       	mov    -0x8(%rsp),%rax
  4037ba:	48 c7 00 00 00 00 00 	movq   $0x0,(%rax)
  4037c1:	c3                   	retq   
_ZNSt10_Head_baseILm0EPSt11atomic_flagLb0EEC2Ev():
  4037c2:	66 2e 0f 1f 84 00 00 	nopw   %cs:0x0(%rax,%rax,1)
  4037c9:	00 00 00 
  4037cc:	0f 1f 40 00          	nopl   0x0(%rax)

00000000004037d0 <_ZNSt10_Head_baseILm1ESt14default_deleteIA_St11atomic_flagELb1EEC2Ev>:
_Head_base():
/usr/bin/../lib/gcc/x86_64-linux-gnu/9/../../../../include/c++/9/tuple:77
  4037d0:	48 89 7c 24 f8       	mov    %rdi,-0x8(%rsp)
  4037d5:	c3                   	retq   
_ZNSt10_Head_baseILm1ESt14default_deleteIA_St11atomic_flagELb1EEC2Ev():
  4037d6:	66 2e 0f 1f 84 00 00 	nopw   %cs:0x0(%rax,%rax,1)
  4037dd:	00 00 00 

00000000004037e0 <_ZSt3getILm0EJPSt11atomic_flagSt14default_deleteIA_S0_EEERNSt13tuple_elementIXT_ESt5tupleIJDpT0_EEE4typeERS9_>:
_ZSt3getILm0EJPSt11atomic_flagSt14default_deleteIA_S0_EEERNSt13tuple_elementIXT_ESt5tupleIJDpT0_EEE4typeERS9_():
/usr/bin/../lib/gcc/x86_64-linux-gnu/9/../../../../include/c++/9/tuple:1321
  4037e0:	50                   	push   %rax
  4037e1:	48 89 3c 24          	mov    %rdi,(%rsp)
  4037e5:	48 8b 04 24          	mov    (%rsp),%rax
  4037e9:	48 89 c7             	mov    %rax,%rdi
  4037ec:	e8 0f 00 00 00       	callq  403800 <_ZSt12__get_helperILm0EPSt11atomic_flagJSt14default_deleteIA_S0_EEERT0_RSt11_Tuple_implIXT_EJS5_DpT1_EE>
  4037f1:	59                   	pop    %rcx
  4037f2:	c3                   	retq   
  4037f3:	66 2e 0f 1f 84 00 00 	nopw   %cs:0x0(%rax,%rax,1)
  4037fa:	00 00 00 
  4037fd:	0f 1f 00             	nopl   (%rax)

0000000000403800 <_ZSt12__get_helperILm0EPSt11atomic_flagJSt14default_deleteIA_S0_EEERT0_RSt11_Tuple_implIXT_EJS5_DpT1_EE>:
_ZSt12__get_helperILm0EPSt11atomic_flagJSt14default_deleteIA_S0_EEERT0_RSt11_Tuple_implIXT_EJS5_DpT1_EE():
/usr/bin/../lib/gcc/x86_64-linux-gnu/9/../../../../include/c++/9/tuple:1310
  403800:	50                   	push   %rax
  403801:	48 89 3c 24          	mov    %rdi,(%rsp)
  403805:	48 8b 3c 24          	mov    (%rsp),%rdi
  403809:	e8 02 00 00 00       	callq  403810 <_ZNSt11_Tuple_implILm0EJPSt11atomic_flagSt14default_deleteIA_S0_EEE7_M_headERS5_>
  40380e:	59                   	pop    %rcx
  40380f:	c3                   	retq   

0000000000403810 <_ZNSt11_Tuple_implILm0EJPSt11atomic_flagSt14default_deleteIA_S0_EEE7_M_headERS5_>:
_ZNSt11_Tuple_implILm0EJPSt11atomic_flagSt14default_deleteIA_S0_EEE7_M_headERS5_():
/usr/bin/../lib/gcc/x86_64-linux-gnu/9/../../../../include/c++/9/tuple:195
  403810:	50                   	push   %rax
  403811:	48 89 3c 24          	mov    %rdi,(%rsp)
  403815:	48 8b 04 24          	mov    (%rsp),%rax
  403819:	48 89 c7             	mov    %rax,%rdi
  40381c:	e8 0f 00 00 00       	callq  403830 <_ZNSt10_Head_baseILm0EPSt11atomic_flagLb0EE7_M_headERS2_>
  403821:	59                   	pop    %rcx
  403822:	c3                   	retq   
  403823:	66 2e 0f 1f 84 00 00 	nopw   %cs:0x0(%rax,%rax,1)
  40382a:	00 00 00 
  40382d:	0f 1f 00             	nopl   (%rax)

0000000000403830 <_ZNSt10_Head_baseILm0EPSt11atomic_flagLb0EE7_M_headERS2_>:
_ZNSt10_Head_baseILm0EPSt11atomic_flagLb0EE7_M_headERS2_():
/usr/bin/../lib/gcc/x86_64-linux-gnu/9/../../../../include/c++/9/tuple:160
  403830:	48 89 7c 24 f8       	mov    %rdi,-0x8(%rsp)
  403835:	48 8b 44 24 f8       	mov    -0x8(%rsp),%rax
  40383a:	c3                   	retq   
  40383b:	0f 1f 44 00 00       	nopl   0x0(%rax,%rax,1)

0000000000403840 <_ZNSt15__uniq_ptr_implISt6atomicIiESt14default_deleteIA_S1_EEC2Ev>:
__uniq_ptr_impl():
/usr/bin/../lib/gcc/x86_64-linux-gnu/9/../../../../include/c++/9/bits/unique_ptr.h:146
  403840:	50                   	push   %rax
  403841:	48 89 3c 24          	mov    %rdi,(%rsp)
  403845:	48 8b 3c 24          	mov    (%rsp),%rdi
  403849:	e8 02 00 00 00       	callq  403850 <_ZNSt5tupleIJPSt6atomicIiESt14default_deleteIA_S1_EEEC2IS2_S5_Lb1EEEv>
  40384e:	58                   	pop    %rax
  40384f:	c3                   	retq   

0000000000403850 <_ZNSt5tupleIJPSt6atomicIiESt14default_deleteIA_S1_EEEC2IS2_S5_Lb1EEEv>:
tuple<std::atomic<int> *, std::default_delete<std::atomic<int> []>, true>():
/usr/bin/../lib/gcc/x86_64-linux-gnu/9/../../../../include/c++/9/tuple:919
  403850:	50                   	push   %rax
  403851:	48 89 3c 24          	mov    %rdi,(%rsp)
  403855:	48 8b 04 24          	mov    (%rsp),%rax
  403859:	48 89 c7             	mov    %rax,%rdi
  40385c:	e8 0f 00 00 00       	callq  403870 <_ZNSt11_Tuple_implILm0EJPSt6atomicIiESt14default_deleteIA_S1_EEEC2Ev>
  403861:	58                   	pop    %rax
  403862:	c3                   	retq   
_ZNSt5tupleIJPSt6atomicIiESt14default_deleteIA_S1_EEEC2IS2_S5_Lb1EEEv():
  403863:	66 2e 0f 1f 84 00 00 	nopw   %cs:0x0(%rax,%rax,1)
  40386a:	00 00 00 
  40386d:	0f 1f 00             	nopl   (%rax)

0000000000403870 <_ZNSt11_Tuple_implILm0EJPSt6atomicIiESt14default_deleteIA_S1_EEEC2Ev>:
_Tuple_impl():
/usr/bin/../lib/gcc/x86_64-linux-gnu/9/../../../../include/c++/9/tuple:207
  403870:	48 83 ec 18          	sub    $0x18,%rsp
  403874:	48 89 7c 24 10       	mov    %rdi,0x10(%rsp)
  403879:	48 8b 44 24 10       	mov    0x10(%rsp),%rax
  40387e:	48 89 c1             	mov    %rax,%rcx
  403881:	48 89 cf             	mov    %rcx,%rdi
  403884:	48 89 44 24 08       	mov    %rax,0x8(%rsp)
  403889:	e8 12 00 00 00       	callq  4038a0 <_ZNSt11_Tuple_implILm1EJSt14default_deleteIA_St6atomicIiEEEEC2Ev>
  40388e:	48 8b 44 24 08       	mov    0x8(%rsp),%rax
  403893:	48 89 c7             	mov    %rax,%rdi
  403896:	e8 25 00 00 00       	callq  4038c0 <_ZNSt10_Head_baseILm0EPSt6atomicIiELb0EEC2Ev>
  40389b:	48 83 c4 18          	add    $0x18,%rsp
  40389f:	c3                   	retq   

00000000004038a0 <_ZNSt11_Tuple_implILm1EJSt14default_deleteIA_St6atomicIiEEEEC2Ev>:
/usr/bin/../lib/gcc/x86_64-linux-gnu/9/../../../../include/c++/9/tuple:340
  4038a0:	50                   	push   %rax
  4038a1:	48 89 3c 24          	mov    %rdi,(%rsp)
  4038a5:	48 8b 04 24          	mov    (%rsp),%rax
  4038a9:	48 89 c7             	mov    %rax,%rdi
  4038ac:	e8 2f 00 00 00       	callq  4038e0 <_ZNSt10_Head_baseILm1ESt14default_deleteIA_St6atomicIiEELb1EEC2Ev>
  4038b1:	58                   	pop    %rax
  4038b2:	c3                   	retq   
_ZNSt11_Tuple_implILm1EJSt14default_deleteIA_St6atomicIiEEEEC2Ev():
  4038b3:	66 2e 0f 1f 84 00 00 	nopw   %cs:0x0(%rax,%rax,1)
  4038ba:	00 00 00 
  4038bd:	0f 1f 00             	nopl   (%rax)

00000000004038c0 <_ZNSt10_Head_baseILm0EPSt6atomicIiELb0EEC2Ev>:
_Head_base():
/usr/bin/../lib/gcc/x86_64-linux-gnu/9/../../../../include/c++/9/tuple:123
  4038c0:	48 89 7c 24 f8       	mov    %rdi,-0x8(%rsp)
  4038c5:	48 8b 44 24 f8       	mov    -0x8(%rsp),%rax
  4038ca:	48 c7 00 00 00 00 00 	movq   $0x0,(%rax)
  4038d1:	c3                   	retq   
_ZNSt10_Head_baseILm0EPSt6atomicIiELb0EEC2Ev():
  4038d2:	66 2e 0f 1f 84 00 00 	nopw   %cs:0x0(%rax,%rax,1)
  4038d9:	00 00 00 
  4038dc:	0f 1f 40 00          	nopl   0x0(%rax)

00000000004038e0 <_ZNSt10_Head_baseILm1ESt14default_deleteIA_St6atomicIiEELb1EEC2Ev>:
_Head_base():
/usr/bin/../lib/gcc/x86_64-linux-gnu/9/../../../../include/c++/9/tuple:77
  4038e0:	48 89 7c 24 f8       	mov    %rdi,-0x8(%rsp)
  4038e5:	c3                   	retq   
_ZNSt10_Head_baseILm1ESt14default_deleteIA_St6atomicIiEELb1EEC2Ev():
  4038e6:	66 2e 0f 1f 84 00 00 	nopw   %cs:0x0(%rax,%rax,1)
  4038ed:	00 00 00 

00000000004038f0 <_ZNSt12_Vector_baseIiSaIiEEC2Ev>:
_Vector_base():
/usr/bin/../lib/gcc/x86_64-linux-gnu/9/../../../../include/c++/9/bits/stl_vector.h:285
  4038f0:	50                   	push   %rax
  4038f1:	48 89 3c 24          	mov    %rdi,(%rsp)
  4038f5:	48 8b 3c 24          	mov    (%rsp),%rdi
  4038f9:	e8 02 00 00 00       	callq  403900 <_ZNSt12_Vector_baseIiSaIiEE12_Vector_implC2Ev>
  4038fe:	58                   	pop    %rax
  4038ff:	c3                   	retq   

0000000000403900 <_ZNSt12_Vector_baseIiSaIiEE12_Vector_implC2Ev>:
_Vector_impl():
/usr/bin/../lib/gcc/x86_64-linux-gnu/9/../../../../include/c++/9/bits/stl_vector.h:131
  403900:	48 83 ec 18          	sub    $0x18,%rsp
  403904:	48 89 7c 24 10       	mov    %rdi,0x10(%rsp)
  403909:	48 8b 44 24 10       	mov    0x10(%rsp),%rax
  40390e:	48 89 c1             	mov    %rax,%rcx
/usr/bin/../lib/gcc/x86_64-linux-gnu/9/../../../../include/c++/9/bits/stl_vector.h:130
  403911:	48 89 cf             	mov    %rcx,%rdi
  403914:	48 89 44 24 08       	mov    %rax,0x8(%rsp)
  403919:	e8 a2 e2 ff ff       	callq  401bc0 <_ZNSaIiEC2Ev>
  40391e:	48 8b 44 24 08       	mov    0x8(%rsp),%rax
/usr/bin/../lib/gcc/x86_64-linux-gnu/9/../../../../include/c++/9/bits/stl_vector.h:128
  403923:	48 89 c7             	mov    %rax,%rdi
  403926:	e8 05 00 00 00       	callq  403930 <_ZNSt12_Vector_baseIiSaIiEE17_Vector_impl_dataC2Ev>
/usr/bin/../lib/gcc/x86_64-linux-gnu/9/../../../../include/c++/9/bits/stl_vector.h:131
  40392b:	48 83 c4 18          	add    $0x18,%rsp
  40392f:	c3                   	retq   

0000000000403930 <_ZNSt12_Vector_baseIiSaIiEE17_Vector_impl_dataC2Ev>:
_Vector_impl_data():
/usr/bin/../lib/gcc/x86_64-linux-gnu/9/../../../../include/c++/9/bits/stl_vector.h:96
  403930:	48 89 7c 24 f8       	mov    %rdi,-0x8(%rsp)
  403935:	48 8b 44 24 f8       	mov    -0x8(%rsp),%rax
/usr/bin/../lib/gcc/x86_64-linux-gnu/9/../../../../include/c++/9/bits/stl_vector.h:95
  40393a:	48 c7 00 00 00 00 00 	movq   $0x0,(%rax)
  403941:	48 c7 40 08 00 00 00 	movq   $0x0,0x8(%rax)
  403948:	00 
  403949:	48 c7 40 10 00 00 00 	movq   $0x0,0x10(%rax)
  403950:	00 
/usr/bin/../lib/gcc/x86_64-linux-gnu/9/../../../../include/c++/9/bits/stl_vector.h:96
  403951:	c3                   	retq   
_ZNSt12_Vector_baseIiSaIiEE17_Vector_impl_dataC2Ev():
  403952:	66 2e 0f 1f 84 00 00 	nopw   %cs:0x0(%rax,%rax,1)
  403959:	00 00 00 
  40395c:	0f 1f 40 00          	nopl   0x0(%rax)

0000000000403960 <_ZN9__gnu_cxx13new_allocatorIiEC2Ev>:
new_allocator():
/usr/bin/../lib/gcc/x86_64-linux-gnu/9/../../../../include/c++/9/ext/new_allocator.h:80
  403960:	48 89 7c 24 f8       	mov    %rdi,-0x8(%rsp)
  403965:	c3                   	retq   
_ZN9__gnu_cxx13new_allocatorIiEC2Ev():
  403966:	66 2e 0f 1f 84 00 00 	nopw   %cs:0x0(%rax,%rax,1)
  40396d:	00 00 00 

0000000000403970 <_ZStanSt12memory_orderSt23__memory_order_modifier>:
_ZStanSt12memory_orderSt23__memory_order_modifier():
/usr/bin/../lib/gcc/x86_64-linux-gnu/9/../../../../include/c++/9/bits/atomic_base.h:100
  403970:	89 7c 24 fc          	mov    %edi,-0x4(%rsp)
  403974:	89 74 24 f8          	mov    %esi,-0x8(%rsp)
/usr/bin/../lib/gcc/x86_64-linux-gnu/9/../../../../include/c++/9/bits/atomic_base.h:101
  403978:	8b 44 24 fc          	mov    -0x4(%rsp),%eax
  40397c:	23 44 24 f8          	and    -0x8(%rsp),%eax
  403980:	c3                   	retq   
  403981:	66 2e 0f 1f 84 00 00 	nopw   %cs:0x0(%rax,%rax,1)
  403988:	00 00 00 
  40398b:	0f 1f 44 00 00       	nopl   0x0(%rax,%rax,1)

0000000000403990 <_ZNSt6vectorIiSaIiEE6resizeEmRKi>:
_ZNSt6vectorIiSaIiEE6resizeEmRKi():
/usr/bin/../lib/gcc/x86_64-linux-gnu/9/../../../../include/c++/9/bits/stl_vector.h:955
  403990:	48 83 ec 48          	sub    $0x48,%rsp
  403994:	48 89 7c 24 40       	mov    %rdi,0x40(%rsp)
  403999:	48 89 74 24 38       	mov    %rsi,0x38(%rsp)
  40399e:	48 89 54 24 30       	mov    %rdx,0x30(%rsp)
  4039a3:	48 8b 44 24 40       	mov    0x40(%rsp),%rax
/usr/bin/../lib/gcc/x86_64-linux-gnu/9/../../../../include/c++/9/bits/stl_vector.h:956
  4039a8:	48 8b 4c 24 38       	mov    0x38(%rsp),%rcx
  4039ad:	48 89 c7             	mov    %rax,%rdi
  4039b0:	48 89 44 24 20       	mov    %rax,0x20(%rsp)
  4039b5:	48 89 4c 24 18       	mov    %rcx,0x18(%rsp)
  4039ba:	e8 e1 09 00 00       	callq  4043a0 <_ZNKSt6vectorIiSaIiEE4sizeEv>
  4039bf:	48 8b 4c 24 18       	mov    0x18(%rsp),%rcx
  4039c4:	48 39 c1             	cmp    %rax,%rcx
  4039c7:	76 47                	jbe    403a10 <_ZNSt6vectorIiSaIiEE6resizeEmRKi+0x80>
  4039c9:	48 8b 7c 24 20       	mov    0x20(%rsp),%rdi
/usr/bin/../lib/gcc/x86_64-linux-gnu/9/../../../../include/c++/9/bits/stl_vector.h:957
  4039ce:	e8 0d 11 00 00       	callq  404ae0 <_ZNSt6vectorIiSaIiEE3endEv>
  4039d3:	48 89 44 24 28       	mov    %rax,0x28(%rsp)
  4039d8:	48 8b 44 24 38       	mov    0x38(%rsp),%rax
  4039dd:	48 8b 7c 24 20       	mov    0x20(%rsp),%rdi
  4039e2:	48 89 44 24 10       	mov    %rax,0x10(%rsp)
  4039e7:	e8 b4 09 00 00       	callq  4043a0 <_ZNKSt6vectorIiSaIiEE4sizeEv>
  4039ec:	48 8b 4c 24 10       	mov    0x10(%rsp),%rcx
  4039f1:	48 29 c1             	sub    %rax,%rcx
  4039f4:	48 8b 44 24 30       	mov    0x30(%rsp),%rax
  4039f9:	48 8b 74 24 28       	mov    0x28(%rsp),%rsi
  4039fe:	48 8b 7c 24 20       	mov    0x20(%rsp),%rdi
  403a03:	48 89 ca             	mov    %rcx,%rdx
  403a06:	48 89 c1             	mov    %rax,%rcx
  403a09:	e8 b2 09 00 00       	callq  4043c0 <_ZNSt6vectorIiSaIiEE14_M_fill_insertEN9__gnu_cxx17__normal_iteratorIPiS1_EEmRKi>
  403a0e:	eb 3f                	jmp    403a4f <_ZNSt6vectorIiSaIiEE6resizeEmRKi+0xbf>
/usr/bin/../lib/gcc/x86_64-linux-gnu/9/../../../../include/c++/9/bits/stl_vector.h:958
  403a10:	48 8b 44 24 38       	mov    0x38(%rsp),%rax
  403a15:	48 8b 7c 24 20       	mov    0x20(%rsp),%rdi
  403a1a:	48 89 44 24 08       	mov    %rax,0x8(%rsp)
  403a1f:	e8 7c 09 00 00       	callq  4043a0 <_ZNKSt6vectorIiSaIiEE4sizeEv>
  403a24:	48 8b 4c 24 08       	mov    0x8(%rsp),%rcx
  403a29:	48 39 c1             	cmp    %rax,%rcx
  403a2c:	73 1f                	jae    403a4d <_ZNSt6vectorIiSaIiEE6resizeEmRKi+0xbd>
  403a2e:	48 8b 44 24 20       	mov    0x20(%rsp),%rax
/usr/bin/../lib/gcc/x86_64-linux-gnu/9/../../../../include/c++/9/bits/stl_vector.h:959
  403a33:	48 8b 08             	mov    (%rax),%rcx
  403a36:	48 8b 54 24 38       	mov    0x38(%rsp),%rdx
  403a3b:	48 c1 e2 02          	shl    $0x2,%rdx
  403a3f:	48 01 d1             	add    %rdx,%rcx
  403a42:	48 89 c7             	mov    %rax,%rdi
  403a45:	48 89 ce             	mov    %rcx,%rsi
  403a48:	e8 c3 10 00 00       	callq  404b10 <_ZNSt6vectorIiSaIiEE15_M_erase_at_endEPi>
  403a4d:	eb 00                	jmp    403a4f <_ZNSt6vectorIiSaIiEE6resizeEmRKi+0xbf>
/usr/bin/../lib/gcc/x86_64-linux-gnu/9/../../../../include/c++/9/bits/stl_vector.h:960
  403a4f:	48 83 c4 48          	add    $0x48,%rsp
  403a53:	c3                   	retq   
  403a54:	66 2e 0f 1f 84 00 00 	nopw   %cs:0x0(%rax,%rax,1)
  403a5b:	00 00 00 
  403a5e:	66 90                	xchg   %ax,%ax

0000000000403a60 <_ZNSaIbEC2Ev>:
allocator():
/usr/bin/../lib/gcc/x86_64-linux-gnu/9/../../../../include/c++/9/bits/allocator.h:138
  403a60:	50                   	push   %rax
  403a61:	48 89 3c 24          	mov    %rdi,(%rsp)
  403a65:	48 8b 04 24          	mov    (%rsp),%rax
  403a69:	48 89 c7             	mov    %rax,%rdi
  403a6c:	e8 cf 1e 00 00       	callq  405940 <_ZN9__gnu_cxx13new_allocatorIbEC2Ev>
  403a71:	58                   	pop    %rax
  403a72:	c3                   	retq   
_ZNSaIbEC2Ev():
  403a73:	66 2e 0f 1f 84 00 00 	nopw   %cs:0x0(%rax,%rax,1)
  403a7a:	00 00 00 
  403a7d:	0f 1f 00             	nopl   (%rax)

0000000000403a80 <_ZNSt6vectorIbSaIbEEC2EmRKbRKS0_>:
vector():
/usr/bin/../lib/gcc/x86_64-linux-gnu/9/../../../../include/c++/9/bits/stl_bvector.h:651
  403a80:	48 83 ec 38          	sub    $0x38,%rsp
  403a84:	48 89 7c 24 30       	mov    %rdi,0x30(%rsp)
  403a89:	48 89 74 24 28       	mov    %rsi,0x28(%rsp)
  403a8e:	48 89 54 24 20       	mov    %rdx,0x20(%rsp)
  403a93:	48 89 4c 24 18       	mov    %rcx,0x18(%rsp)
  403a98:	48 8b 44 24 30       	mov    0x30(%rsp),%rax
/usr/bin/../lib/gcc/x86_64-linux-gnu/9/../../../../include/c++/9/bits/stl_bvector.h:650
  403a9d:	48 8b 74 24 18       	mov    0x18(%rsp),%rsi
  403aa2:	48 89 c7             	mov    %rax,%rdi
  403aa5:	48 89 04 24          	mov    %rax,(%rsp)
  403aa9:	e8 a2 1e 00 00       	callq  405950 <_ZNSt13_Bvector_baseISaIbEEC2ERKS0_>
/usr/bin/../lib/gcc/x86_64-linux-gnu/9/../../../../include/c++/9/bits/stl_bvector.h:652
  403aae:	48 8b 74 24 28       	mov    0x28(%rsp),%rsi
  403ab3:	48 8b 3c 24          	mov    (%rsp),%rdi
  403ab7:	e8 e4 1e 00 00       	callq  4059a0 <_ZNSt6vectorIbSaIbEE13_M_initializeEm>
  403abc:	eb 00                	jmp    403abe <_ZNSt6vectorIbSaIbEEC2EmRKbRKS0_+0x3e>
/usr/bin/../lib/gcc/x86_64-linux-gnu/9/../../../../include/c++/9/bits/stl_bvector.h:653
  403abe:	48 8b 44 24 20       	mov    0x20(%rsp),%rax
  403ac3:	0f b6 08             	movzbl (%rax),%ecx
  403ac6:	83 e1 01             	and    $0x1,%ecx
  403ac9:	48 8b 3c 24          	mov    (%rsp),%rdi
  403acd:	89 ce                	mov    %ecx,%esi
  403acf:	e8 cc 1f 00 00       	callq  405aa0 <_ZNSt6vectorIbSaIbEE19_M_initialize_valueEb>
  403ad4:	eb 00                	jmp    403ad6 <_ZNSt6vectorIbSaIbEEC2EmRKbRKS0_+0x56>
/usr/bin/../lib/gcc/x86_64-linux-gnu/9/../../../../include/c++/9/bits/stl_bvector.h:654
  403ad6:	48 83 c4 38          	add    $0x38,%rsp
  403ada:	c3                   	retq   
  403adb:	48 89 44 24 10       	mov    %rax,0x10(%rsp)
  403ae0:	89 54 24 0c          	mov    %edx,0xc(%rsp)
  403ae4:	48 8b 04 24          	mov    (%rsp),%rax
  403ae8:	48 89 c7             	mov    %rax,%rdi
  403aeb:	e8 30 20 00 00       	callq  405b20 <_ZNSt13_Bvector_baseISaIbEED2Ev>
  403af0:	48 8b 7c 24 10       	mov    0x10(%rsp),%rdi
  403af5:	e8 c6 d8 ff ff       	callq  4013c0 <_Unwind_Resume@plt>
_ZNSt6vectorIbSaIbEEC2EmRKbRKS0_():
  403afa:	66 0f 1f 44 00 00    	nopw   0x0(%rax,%rax,1)

0000000000403b00 <_ZNSaIbED2Ev>:
~allocator():
/usr/bin/../lib/gcc/x86_64-linux-gnu/9/../../../../include/c++/9/bits/allocator.h:153
  403b00:	50                   	push   %rax
  403b01:	48 89 3c 24          	mov    %rdi,(%rsp)
  403b05:	48 8b 04 24          	mov    (%rsp),%rax
  403b09:	48 89 c7             	mov    %rax,%rdi
  403b0c:	e8 bf 25 00 00       	callq  4060d0 <_ZN9__gnu_cxx13new_allocatorIbED2Ev>
  403b11:	58                   	pop    %rax
  403b12:	c3                   	retq   
_ZNSaIbED2Ev():
  403b13:	66 2e 0f 1f 84 00 00 	nopw   %cs:0x0(%rax,%rax,1)
  403b1a:	00 00 00 
  403b1d:	0f 1f 00             	nopl   (%rax)

0000000000403b20 <_ZNSt6vectorISt4pairIiiESaIS1_EEC2Ev>:
vector():
/usr/bin/../lib/gcc/x86_64-linux-gnu/9/../../../../include/c++/9/bits/stl_vector.h:484
  403b20:	50                   	push   %rax
  403b21:	48 89 3c 24          	mov    %rdi,(%rsp)
  403b25:	48 8b 04 24          	mov    (%rsp),%rax
  403b29:	48 89 c7             	mov    %rax,%rdi
  403b2c:	e8 af 25 00 00       	callq  4060e0 <_ZNSt12_Vector_baseISt4pairIiiESaIS1_EEC2Ev>
  403b31:	58                   	pop    %rax
  403b32:	c3                   	retq   
_ZNSt6vectorISt4pairIiiESaIS1_EEC2Ev():
  403b33:	66 2e 0f 1f 84 00 00 	nopw   %cs:0x0(%rax,%rax,1)
  403b3a:	00 00 00 
  403b3d:	0f 1f 00             	nopl   (%rax)

0000000000403b40 <_ZNSaISt6vectorISt4pairIiiESaIS1_EEEC2Ev>:
allocator():
/usr/bin/../lib/gcc/x86_64-linux-gnu/9/../../../../include/c++/9/bits/allocator.h:138
  403b40:	50                   	push   %rax
  403b41:	48 89 3c 24          	mov    %rdi,(%rsp)
  403b45:	48 8b 04 24          	mov    (%rsp),%rax
  403b49:	48 89 c7             	mov    %rax,%rdi
  403b4c:	e8 2f 26 00 00       	callq  406180 <_ZN9__gnu_cxx13new_allocatorISt6vectorISt4pairIiiESaIS3_EEEC2Ev>
  403b51:	58                   	pop    %rax
  403b52:	c3                   	retq   
_ZNSaISt6vectorISt4pairIiiESaIS1_EEEC2Ev():
  403b53:	66 2e 0f 1f 84 00 00 	nopw   %cs:0x0(%rax,%rax,1)
  403b5a:	00 00 00 
  403b5d:	0f 1f 00             	nopl   (%rax)

0000000000403b60 <_ZNSt6vectorIS_ISt4pairIiiESaIS1_EESaIS3_EEC2EmRKS3_RKS4_>:
vector():
/usr/bin/../lib/gcc/x86_64-linux-gnu/9/../../../../include/c++/9/bits/stl_vector.h:522
  403b60:	48 83 ec 38          	sub    $0x38,%rsp
  403b64:	48 89 7c 24 30       	mov    %rdi,0x30(%rsp)
  403b69:	48 89 74 24 28       	mov    %rsi,0x28(%rsp)
  403b6e:	48 89 54 24 20       	mov    %rdx,0x20(%rsp)
  403b73:	48 89 4c 24 18       	mov    %rcx,0x18(%rsp)
  403b78:	48 8b 44 24 30       	mov    0x30(%rsp),%rax
/usr/bin/../lib/gcc/x86_64-linux-gnu/9/../../../../include/c++/9/bits/stl_vector.h:521
  403b7d:	48 8b 7c 24 28       	mov    0x28(%rsp),%rdi
  403b82:	48 8b 74 24 18       	mov    0x18(%rsp),%rsi
  403b87:	48 89 04 24          	mov    %rax,(%rsp)
  403b8b:	e8 00 26 00 00       	callq  406190 <_ZNSt6vectorIS_ISt4pairIiiESaIS1_EESaIS3_EE17_S_check_init_lenEmRKS4_>
  403b90:	48 8b 54 24 18       	mov    0x18(%rsp),%rdx
  403b95:	48 8b 3c 24          	mov    (%rsp),%rdi
  403b99:	48 89 c6             	mov    %rax,%rsi
  403b9c:	e8 5f 26 00 00       	callq  406200 <_ZNSt12_Vector_baseISt6vectorISt4pairIiiESaIS2_EESaIS4_EEC2EmRKS5_>
/usr/bin/../lib/gcc/x86_64-linux-gnu/9/../../../../include/c++/9/bits/stl_vector.h:522
  403ba1:	48 8b 74 24 28       	mov    0x28(%rsp),%rsi
  403ba6:	48 8b 54 24 20       	mov    0x20(%rsp),%rdx
  403bab:	48 8b 3c 24          	mov    (%rsp),%rdi
  403baf:	e8 ac 26 00 00       	callq  406260 <_ZNSt6vectorIS_ISt4pairIiiESaIS1_EESaIS3_EE18_M_fill_initializeEmRKS3_>
  403bb4:	eb 00                	jmp    403bb6 <_ZNSt6vectorIS_ISt4pairIiiESaIS1_EESaIS3_EEC2EmRKS3_RKS4_+0x56>
  403bb6:	48 83 c4 38          	add    $0x38,%rsp
  403bba:	c3                   	retq   
  403bbb:	48 89 44 24 10       	mov    %rax,0x10(%rsp)
  403bc0:	89 54 24 0c          	mov    %edx,0xc(%rsp)
  403bc4:	48 8b 04 24          	mov    (%rsp),%rax
  403bc8:	48 89 c7             	mov    %rax,%rdi
  403bcb:	e8 00 27 00 00       	callq  4062d0 <_ZNSt12_Vector_baseISt6vectorISt4pairIiiESaIS2_EESaIS4_EED2Ev>
  403bd0:	48 8b 7c 24 10       	mov    0x10(%rsp),%rdi
  403bd5:	e8 e6 d7 ff ff       	callq  4013c0 <_Unwind_Resume@plt>
_ZNSt6vectorIS_ISt4pairIiiESaIS1_EESaIS3_EEC2EmRKS3_RKS4_():
  403bda:	66 0f 1f 44 00 00    	nopw   0x0(%rax,%rax,1)

0000000000403be0 <_ZNSaISt6vectorISt4pairIiiESaIS1_EEED2Ev>:
~allocator():
/usr/bin/../lib/gcc/x86_64-linux-gnu/9/../../../../include/c++/9/bits/allocator.h:153
  403be0:	50                   	push   %rax
  403be1:	48 89 3c 24          	mov    %rdi,(%rsp)
  403be5:	48 8b 04 24          	mov    (%rsp),%rax
  403be9:	48 89 c7             	mov    %rax,%rdi
  403bec:	e8 cf 29 00 00       	callq  4065c0 <_ZN9__gnu_cxx13new_allocatorISt6vectorISt4pairIiiESaIS3_EEED2Ev>
  403bf1:	58                   	pop    %rax
  403bf2:	c3                   	retq   
_ZNSaISt6vectorISt4pairIiiESaIS1_EEED2Ev():
  403bf3:	66 2e 0f 1f 84 00 00 	nopw   %cs:0x0(%rax,%rax,1)
  403bfa:	00 00 00 
  403bfd:	0f 1f 00             	nopl   (%rax)

0000000000403c00 <_ZNSt6vectorISt4pairIiiESaIS1_EED2Ev>:
~vector():
/usr/bin/../lib/gcc/x86_64-linux-gnu/9/../../../../include/c++/9/bits/stl_vector.h:676
  403c00:	48 83 ec 38          	sub    $0x38,%rsp
  403c04:	48 89 7c 24 30       	mov    %rdi,0x30(%rsp)
  403c09:	48 8b 44 24 30       	mov    0x30(%rsp),%rax
/usr/bin/../lib/gcc/x86_64-linux-gnu/9/../../../../include/c++/9/bits/stl_vector.h:677
  403c0e:	48 8b 38             	mov    (%rax),%rdi
  403c11:	48 8b 70 08          	mov    0x8(%rax),%rsi
  403c15:	48 89 7c 24 18       	mov    %rdi,0x18(%rsp)
/usr/bin/../lib/gcc/x86_64-linux-gnu/9/../../../../include/c++/9/bits/stl_vector.h:678
  403c1a:	48 89 c7             	mov    %rax,%rdi
  403c1d:	48 89 44 24 10       	mov    %rax,0x10(%rsp)
  403c22:	48 89 74 24 08       	mov    %rsi,0x8(%rsp)
  403c27:	e8 f4 2d 00 00       	callq  406a20 <_ZNSt12_Vector_baseISt4pairIiiESaIS1_EE19_M_get_Tp_allocatorEv>
  403c2c:	48 8b 7c 24 18       	mov    0x18(%rsp),%rdi
  403c31:	48 8b 74 24 08       	mov    0x8(%rsp),%rsi
/usr/bin/../lib/gcc/x86_64-linux-gnu/9/../../../../include/c++/9/bits/stl_vector.h:677
  403c36:	48 89 c2             	mov    %rax,%rdx
  403c39:	e8 82 34 00 00       	callq  4070c0 <_ZSt8_DestroyIPSt4pairIiiES1_EvT_S3_RSaIT0_E>
  403c3e:	eb 00                	jmp    403c40 <_ZNSt6vectorISt4pairIiiESaIS1_EED2Ev+0x40>
  403c40:	48 8b 44 24 10       	mov    0x10(%rsp),%rax
/usr/bin/../lib/gcc/x86_64-linux-gnu/9/../../../../include/c++/9/bits/stl_vector.h:680
  403c45:	48 89 c7             	mov    %rax,%rdi
  403c48:	e8 e3 2d 00 00       	callq  406a30 <_ZNSt12_Vector_baseISt4pairIiiESaIS1_EED2Ev>
  403c4d:	48 83 c4 38          	add    $0x38,%rsp
  403c51:	c3                   	retq   
  403c52:	48 89 44 24 28       	mov    %rax,0x28(%rsp)
  403c57:	89 54 24 24          	mov    %edx,0x24(%rsp)
  403c5b:	48 8b 44 24 10       	mov    0x10(%rsp),%rax
  403c60:	48 89 c7             	mov    %rax,%rdi
  403c63:	e8 c8 2d 00 00       	callq  406a30 <_ZNSt12_Vector_baseISt4pairIiiESaIS1_EED2Ev>
  403c68:	48 8b 7c 24 28       	mov    0x28(%rsp),%rdi
  403c6d:	e8 2e f2 ff ff       	callq  402ea0 <__clang_call_terminate>
_ZNSt6vectorISt4pairIiiESaIS1_EED2Ev():
  403c72:	66 2e 0f 1f 84 00 00 	nopw   %cs:0x0(%rax,%rax,1)
  403c79:	00 00 00 
  403c7c:	0f 1f 40 00          	nopl   0x0(%rax)

0000000000403c80 <_ZNSt6vectorIS_IiSaIiEESaIS1_EE5beginEv>:
_ZNSt6vectorIS_IiSaIiEESaIS1_EE5beginEv():
/usr/bin/../lib/gcc/x86_64-linux-gnu/9/../../../../include/c++/9/bits/stl_vector.h:809
  403c80:	48 83 ec 18          	sub    $0x18,%rsp
  403c84:	48 89 7c 24 08       	mov    %rdi,0x8(%rsp)
  403c89:	48 8b 44 24 08       	mov    0x8(%rsp),%rax
  403c8e:	48 8d 7c 24 10       	lea    0x10(%rsp),%rdi
  403c93:	48 89 c6             	mov    %rax,%rsi
  403c96:	e8 55 34 00 00       	callq  4070f0 <_ZN9__gnu_cxx17__normal_iteratorIPSt6vectorIiSaIiEES1_IS3_SaIS3_EEEC2ERKS4_>
  403c9b:	48 8b 44 24 10       	mov    0x10(%rsp),%rax
  403ca0:	48 83 c4 18          	add    $0x18,%rsp
  403ca4:	c3                   	retq   
  403ca5:	66 2e 0f 1f 84 00 00 	nopw   %cs:0x0(%rax,%rax,1)
  403cac:	00 00 00 
  403caf:	90                   	nop

0000000000403cb0 <_ZNSt6vectorIS_IiSaIiEESaIS1_EE3endEv>:
_ZNSt6vectorIS_IiSaIiEESaIS1_EE3endEv():
/usr/bin/../lib/gcc/x86_64-linux-gnu/9/../../../../include/c++/9/bits/stl_vector.h:827
  403cb0:	48 83 ec 18          	sub    $0x18,%rsp
  403cb4:	48 89 7c 24 08       	mov    %rdi,0x8(%rsp)
  403cb9:	48 8b 44 24 08       	mov    0x8(%rsp),%rax
  403cbe:	48 83 c0 08          	add    $0x8,%rax
  403cc2:	48 8d 7c 24 10       	lea    0x10(%rsp),%rdi
  403cc7:	48 89 c6             	mov    %rax,%rsi
  403cca:	e8 21 34 00 00       	callq  4070f0 <_ZN9__gnu_cxx17__normal_iteratorIPSt6vectorIiSaIiEES1_IS3_SaIS3_EEEC2ERKS4_>
  403ccf:	48 8b 44 24 10       	mov    0x10(%rsp),%rax
  403cd4:	48 83 c4 18          	add    $0x18,%rsp
  403cd8:	c3                   	retq   
  403cd9:	0f 1f 80 00 00 00 00 	nopl   0x0(%rax)

0000000000403ce0 <_ZN9__gnu_cxxneIPSt6vectorIiSaIiEES1_IS3_SaIS3_EEEEbRKNS_17__normal_iteratorIT_T0_EESC_>:
_ZN9__gnu_cxxneIPSt6vectorIiSaIiEES1_IS3_SaIS3_EEEEbRKNS_17__normal_iteratorIT_T0_EESC_():
/usr/bin/../lib/gcc/x86_64-linux-gnu/9/../../../../include/c++/9/bits/stl_iterator.h:910
  403ce0:	48 83 ec 18          	sub    $0x18,%rsp
  403ce4:	48 89 7c 24 10       	mov    %rdi,0x10(%rsp)
  403ce9:	48 89 74 24 08       	mov    %rsi,0x8(%rsp)
  403cee:	48 8b 7c 24 10       	mov    0x10(%rsp),%rdi
  403cf3:	e8 18 34 00 00       	callq  407110 <_ZNK9__gnu_cxx17__normal_iteratorIPSt6vectorIiSaIiEES1_IS3_SaIS3_EEE4baseEv>
  403cf8:	48 8b 00             	mov    (%rax),%rax
  403cfb:	48 8b 7c 24 08       	mov    0x8(%rsp),%rdi
  403d00:	48 89 04 24          	mov    %rax,(%rsp)
  403d04:	e8 07 34 00 00       	callq  407110 <_ZNK9__gnu_cxx17__normal_iteratorIPSt6vectorIiSaIiEES1_IS3_SaIS3_EEE4baseEv>
  403d09:	48 8b 0c 24          	mov    (%rsp),%rcx
  403d0d:	48 3b 08             	cmp    (%rax),%rcx
  403d10:	0f 95 c2             	setne  %dl
  403d13:	80 e2 01             	and    $0x1,%dl
  403d16:	0f b6 c2             	movzbl %dl,%eax
  403d19:	48 83 c4 18          	add    $0x18,%rsp
  403d1d:	c3                   	retq   
  403d1e:	66 90                	xchg   %ax,%ax

0000000000403d20 <_ZNK9__gnu_cxx17__normal_iteratorIPSt6vectorIiSaIiEES1_IS3_SaIS3_EEEdeEv>:
_ZNK9__gnu_cxx17__normal_iteratorIPSt6vectorIiSaIiEES1_IS3_SaIS3_EEEdeEv():
/usr/bin/../lib/gcc/x86_64-linux-gnu/9/../../../../include/c++/9/bits/stl_iterator.h:820
  403d20:	48 89 7c 24 f8       	mov    %rdi,-0x8(%rsp)
  403d25:	48 8b 44 24 f8       	mov    -0x8(%rsp),%rax
  403d2a:	48 8b 00             	mov    (%rax),%rax
  403d2d:	c3                   	retq   
  403d2e:	66 90                	xchg   %ax,%ax

0000000000403d30 <_ZNSt6vectorIiSaIiEEC2ERKS1_>:
vector():
/usr/bin/../lib/gcc/x86_64-linux-gnu/9/../../../../include/c++/9/bits/stl_vector.h:553
  403d30:	48 83 ec 68          	sub    $0x68,%rsp
  403d34:	48 89 7c 24 60       	mov    %rdi,0x60(%rsp)
  403d39:	48 89 74 24 58       	mov    %rsi,0x58(%rsp)
  403d3e:	48 8b 44 24 60       	mov    0x60(%rsp),%rax
/usr/bin/../lib/gcc/x86_64-linux-gnu/9/../../../../include/c++/9/bits/stl_vector.h:551
  403d43:	48 8b 7c 24 58       	mov    0x58(%rsp),%rdi
  403d48:	48 89 44 24 28       	mov    %rax,0x28(%rsp)
  403d4d:	e8 4e 06 00 00       	callq  4043a0 <_ZNKSt6vectorIiSaIiEE4sizeEv>
/usr/bin/../lib/gcc/x86_64-linux-gnu/9/../../../../include/c++/9/bits/stl_vector.h:552
  403d52:	48 8b 7c 24 58       	mov    0x58(%rsp),%rdi
  403d57:	48 89 44 24 20       	mov    %rax,0x20(%rsp)
  403d5c:	e8 2f 1a 00 00       	callq  405790 <_ZNKSt12_Vector_baseIiSaIiEE19_M_get_Tp_allocatorEv>
  403d61:	48 8d 4c 24 50       	lea    0x50(%rsp),%rcx
  403d66:	48 89 cf             	mov    %rcx,%rdi
  403d69:	48 89 c6             	mov    %rax,%rsi
  403d6c:	48 89 4c 24 18       	mov    %rcx,0x18(%rsp)
  403d71:	e8 aa 33 00 00       	callq  407120 <_ZN9__gnu_cxx14__alloc_traitsISaIiEiE17_S_select_on_copyERKS1_>
  403d76:	48 8b 7c 24 28       	mov    0x28(%rsp),%rdi
  403d7b:	48 8b 74 24 20       	mov    0x20(%rsp),%rsi
  403d80:	48 8b 54 24 18       	mov    0x18(%rsp),%rdx
/usr/bin/../lib/gcc/x86_64-linux-gnu/9/../../../../include/c++/9/bits/stl_vector.h:551
  403d85:	e8 c6 33 00 00       	callq  407150 <_ZNSt12_Vector_baseIiSaIiEEC2EmRKS0_>
  403d8a:	eb 00                	jmp    403d8c <_ZNSt6vectorIiSaIiEEC2ERKS1_+0x5c>
  403d8c:	48 8d 7c 24 50       	lea    0x50(%rsp),%rdi
  403d91:	e8 5a df ff ff       	callq  401cf0 <_ZNSaIiED2Ev>
/usr/bin/../lib/gcc/x86_64-linux-gnu/9/../../../../include/c++/9/bits/stl_vector.h:555
  403d96:	48 8b 7c 24 58       	mov    0x58(%rsp),%rdi
  403d9b:	e8 60 34 00 00       	callq  407200 <_ZNKSt6vectorIiSaIiEE5beginEv>
  403da0:	48 89 44 24 38       	mov    %rax,0x38(%rsp)
  403da5:	48 8b 7c 24 58       	mov    0x58(%rsp),%rdi
  403daa:	e8 81 34 00 00       	callq  407230 <_ZNKSt6vectorIiSaIiEE3endEv>
  403daf:	48 89 44 24 30       	mov    %rax,0x30(%rsp)
  403db4:	48 8b 44 24 28       	mov    0x28(%rsp),%rax
/usr/bin/../lib/gcc/x86_64-linux-gnu/9/../../../../include/c++/9/bits/stl_vector.h:556
  403db9:	48 8b 10             	mov    (%rax),%rdx
/usr/bin/../lib/gcc/x86_64-linux-gnu/9/../../../../include/c++/9/bits/stl_vector.h:557
  403dbc:	48 89 c7             	mov    %rax,%rdi
  403dbf:	48 89 54 24 10       	mov    %rdx,0x10(%rsp)
  403dc4:	e8 e7 0e 00 00       	callq  404cb0 <_ZNSt12_Vector_baseIiSaIiEE19_M_get_Tp_allocatorEv>
/usr/bin/../lib/gcc/x86_64-linux-gnu/9/../../../../include/c++/9/bits/stl_vector.h:555
  403dc9:	48 8b 7c 24 38       	mov    0x38(%rsp),%rdi
  403dce:	48 8b 74 24 30       	mov    0x30(%rsp),%rsi
  403dd3:	48 8b 54 24 10       	mov    0x10(%rsp),%rdx
  403dd8:	48 89 c1             	mov    %rax,%rcx
  403ddb:	e8 d0 33 00 00       	callq  4071b0 <_ZSt22__uninitialized_copy_aIN9__gnu_cxx17__normal_iteratorIPKiSt6vectorIiSaIiEEEEPiiET0_T_SA_S9_RSaIT1_E>
  403de0:	48 89 44 24 08       	mov    %rax,0x8(%rsp)
  403de5:	eb 00                	jmp    403de7 <_ZNSt6vectorIiSaIiEEC2ERKS1_+0xb7>
  403de7:	48 8b 44 24 28       	mov    0x28(%rsp),%rax
  403dec:	48 8b 4c 24 08       	mov    0x8(%rsp),%rcx
/usr/bin/../lib/gcc/x86_64-linux-gnu/9/../../../../include/c++/9/bits/stl_vector.h:554
  403df1:	48 89 48 08          	mov    %rcx,0x8(%rax)
/usr/bin/../lib/gcc/x86_64-linux-gnu/9/../../../../include/c++/9/bits/stl_vector.h:558
  403df5:	48 83 c4 68          	add    $0x68,%rsp
  403df9:	c3                   	retq   
  403dfa:	48 89 44 24 48       	mov    %rax,0x48(%rsp)
  403dff:	89 54 24 44          	mov    %edx,0x44(%rsp)
/usr/bin/../lib/gcc/x86_64-linux-gnu/9/../../../../include/c++/9/bits/stl_vector.h:551
  403e03:	48 8d 7c 24 50       	lea    0x50(%rsp),%rdi
  403e08:	e8 e3 de ff ff       	callq  401cf0 <_ZNSaIiED2Ev>
  403e0d:	eb 16                	jmp    403e25 <_ZNSt6vectorIiSaIiEEC2ERKS1_+0xf5>
/usr/bin/../lib/gcc/x86_64-linux-gnu/9/../../../../include/c++/9/bits/stl_vector.h:558
  403e0f:	48 89 44 24 48       	mov    %rax,0x48(%rsp)
  403e14:	89 54 24 44          	mov    %edx,0x44(%rsp)
  403e18:	48 8b 44 24 28       	mov    0x28(%rsp),%rax
  403e1d:	48 89 c7             	mov    %rax,%rdi
  403e20:	e8 3b 34 00 00       	callq  407260 <_ZNSt12_Vector_baseIiSaIiEED2Ev>
/usr/bin/../lib/gcc/x86_64-linux-gnu/9/../../../../include/c++/9/bits/stl_vector.h:551
  403e25:	48 8b 7c 24 48       	mov    0x48(%rsp),%rdi
  403e2a:	e8 91 d5 ff ff       	callq  4013c0 <_Unwind_Resume@plt>
_ZNSt6vectorIiSaIiEEC2ERKS1_():
  403e2f:	90                   	nop

0000000000403e30 <_ZNSt6vectorIS_ISt4pairIiiESaIS1_EESaIS3_EEixEm>:
_ZNSt6vectorIS_ISt4pairIiiESaIS1_EESaIS3_EEixEm():
/usr/bin/../lib/gcc/x86_64-linux-gnu/9/../../../../include/c++/9/bits/stl_vector.h:1041
  403e30:	48 89 7c 24 f8       	mov    %rdi,-0x8(%rsp)
  403e35:	48 89 74 24 f0       	mov    %rsi,-0x10(%rsp)
  403e3a:	48 8b 44 24 f8       	mov    -0x8(%rsp),%rax
/usr/bin/../lib/gcc/x86_64-linux-gnu/9/../../../../include/c++/9/bits/stl_vector.h:1043
  403e3f:	48 8b 00             	mov    (%rax),%rax
  403e42:	48 6b 4c 24 f0 18    	imul   $0x18,-0x10(%rsp),%rcx
  403e48:	48 01 c8             	add    %rcx,%rax
  403e4b:	c3                   	retq   
  403e4c:	0f 1f 40 00          	nopl   0x0(%rax)

0000000000403e50 <_ZNSt6vectorIiSaIiEEixEm>:
_ZNSt6vectorIiSaIiEEixEm():
/usr/bin/../lib/gcc/x86_64-linux-gnu/9/../../../../include/c++/9/bits/stl_vector.h:1041
  403e50:	48 89 7c 24 f8       	mov    %rdi,-0x8(%rsp)
  403e55:	48 89 74 24 f0       	mov    %rsi,-0x10(%rsp)
  403e5a:	48 8b 44 24 f8       	mov    -0x8(%rsp),%rax
/usr/bin/../lib/gcc/x86_64-linux-gnu/9/../../../../include/c++/9/bits/stl_vector.h:1043
  403e5f:	48 8b 00             	mov    (%rax),%rax
  403e62:	48 8b 4c 24 f0       	mov    -0x10(%rsp),%rcx
  403e67:	48 c1 e1 02          	shl    $0x2,%rcx
  403e6b:	48 01 c8             	add    %rcx,%rax
  403e6e:	c3                   	retq   
  403e6f:	90                   	nop

0000000000403e70 <_ZNSt6vectorISt4pairIiiESaIS1_EE9push_backEOS1_>:
_ZNSt6vectorISt4pairIiiESaIS1_EE9push_backEOS1_():
/usr/bin/../lib/gcc/x86_64-linux-gnu/9/../../../../include/c++/9/bits/stl_vector.h:1201
  403e70:	48 83 ec 18          	sub    $0x18,%rsp
  403e74:	48 89 7c 24 10       	mov    %rdi,0x10(%rsp)
  403e79:	48 89 74 24 08       	mov    %rsi,0x8(%rsp)
  403e7e:	48 8b 7c 24 10       	mov    0x10(%rsp),%rdi
  403e83:	48 8b 44 24 08       	mov    0x8(%rsp),%rax
  403e88:	48 89 3c 24          	mov    %rdi,(%rsp)
  403e8c:	48 89 c7             	mov    %rax,%rdi
  403e8f:	e8 9c 38 00 00       	callq  407730 <_ZSt4moveIRSt4pairIiiEEONSt16remove_referenceIT_E4typeEOS4_>
  403e94:	48 8b 3c 24          	mov    (%rsp),%rdi
  403e98:	48 89 c6             	mov    %rax,%rsi
  403e9b:	e8 e0 37 00 00       	callq  407680 <_ZNSt6vectorISt4pairIiiESaIS1_EE12emplace_backIJS1_EEERS1_DpOT_>
  403ea0:	48 83 c4 18          	add    $0x18,%rsp
  403ea4:	c3                   	retq   
  403ea5:	66 2e 0f 1f 84 00 00 	nopw   %cs:0x0(%rax,%rax,1)
  403eac:	00 00 00 
  403eaf:	90                   	nop

0000000000403eb0 <_ZSt9make_pairIRiS0_ESt4pairINSt17__decay_and_stripIT_E6__typeENS2_IT0_E6__typeEEOS3_OS6_>:
_ZSt9make_pairIRiS0_ESt4pairINSt17__decay_and_stripIT_E6__typeENS2_IT0_E6__typeEEOS3_OS6_():
/usr/bin/../lib/gcc/x86_64-linux-gnu/9/../../../../include/c++/9/bits/stl_pair.h:525
  403eb0:	48 83 ec 28          	sub    $0x28,%rsp
  403eb4:	48 89 7c 24 18       	mov    %rdi,0x18(%rsp)
  403eb9:	48 89 74 24 10       	mov    %rsi,0x10(%rsp)
/usr/bin/../lib/gcc/x86_64-linux-gnu/9/../../../../include/c++/9/bits/stl_pair.h:529
  403ebe:	48 8b 7c 24 18       	mov    0x18(%rsp),%rdi
  403ec3:	e8 48 40 00 00       	callq  407f10 <_ZSt7forwardIRiEOT_RNSt16remove_referenceIS1_E4typeE>
  403ec8:	48 8b 7c 24 10       	mov    0x10(%rsp),%rdi
  403ecd:	48 89 44 24 08       	mov    %rax,0x8(%rsp)
  403ed2:	e8 39 40 00 00       	callq  407f10 <_ZSt7forwardIRiEOT_RNSt16remove_referenceIS1_E4typeE>
  403ed7:	48 8d 7c 24 20       	lea    0x20(%rsp),%rdi
  403edc:	48 8b 74 24 08       	mov    0x8(%rsp),%rsi
  403ee1:	48 89 c2             	mov    %rax,%rdx
  403ee4:	e8 37 40 00 00       	callq  407f20 <_ZNSt4pairIiiEC2IRiS2_Lb1EEEOT_OT0_>
  403ee9:	48 8b 44 24 20       	mov    0x20(%rsp),%rax
  403eee:	48 83 c4 28          	add    $0x28,%rsp
  403ef2:	c3                   	retq   
  403ef3:	66 2e 0f 1f 84 00 00 	nopw   %cs:0x0(%rax,%rax,1)
  403efa:	00 00 00 
  403efd:	0f 1f 00             	nopl   (%rax)

0000000000403f00 <_ZNSt6vectorIS_IS_IiSaIiEESaIS1_EESaIS3_EEixEm>:
_ZNSt6vectorIS_IS_IiSaIiEESaIS1_EESaIS3_EEixEm():
/usr/bin/../lib/gcc/x86_64-linux-gnu/9/../../../../include/c++/9/bits/stl_vector.h:1041
  403f00:	48 89 7c 24 f8       	mov    %rdi,-0x8(%rsp)
  403f05:	48 89 74 24 f0       	mov    %rsi,-0x10(%rsp)
  403f0a:	48 8b 44 24 f8       	mov    -0x8(%rsp),%rax
/usr/bin/../lib/gcc/x86_64-linux-gnu/9/../../../../include/c++/9/bits/stl_vector.h:1043
  403f0f:	48 8b 00             	mov    (%rax),%rax
  403f12:	48 6b 4c 24 f0 18    	imul   $0x18,-0x10(%rsp),%rcx
  403f18:	48 01 c8             	add    %rcx,%rax
  403f1b:	c3                   	retq   
  403f1c:	0f 1f 40 00          	nopl   0x0(%rax)

0000000000403f20 <_ZNSt6vectorIS_IiSaIiEESaIS1_EE12emplace_backIJS1_EEERS1_DpOT_>:
_ZNSt6vectorIS_IiSaIiEESaIS1_EE12emplace_backIJS1_EEERS1_DpOT_():
/usr/bin/../lib/gcc/x86_64-linux-gnu/9/../../../../include/c++/9/bits/vector.tcc:111
  403f20:	48 83 ec 38          	sub    $0x38,%rsp
  403f24:	48 89 7c 24 30       	mov    %rdi,0x30(%rsp)
  403f29:	48 89 74 24 28       	mov    %rsi,0x28(%rsp)
  403f2e:	48 8b 44 24 30       	mov    0x30(%rsp),%rax
/usr/bin/../lib/gcc/x86_64-linux-gnu/9/../../../../include/c++/9/bits/vector.tcc:112
  403f33:	48 8b 48 08          	mov    0x8(%rax),%rcx
  403f37:	48 3b 48 10          	cmp    0x10(%rax),%rcx
  403f3b:	48 89 44 24 18       	mov    %rax,0x18(%rsp)
  403f40:	74 47                	je     403f89 <_ZNSt6vectorIS_IiSaIiEESaIS1_EE12emplace_backIJS1_EEERS1_DpOT_+0x69>
  403f42:	48 8b 44 24 18       	mov    0x18(%rsp),%rax
  403f47:	48 8b 4c 24 18       	mov    0x18(%rsp),%rcx
/usr/bin/../lib/gcc/x86_64-linux-gnu/9/../../../../include/c++/9/bits/vector.tcc:115
  403f4c:	48 8b 71 08          	mov    0x8(%rcx),%rsi
/usr/bin/../lib/gcc/x86_64-linux-gnu/9/../../../../include/c++/9/bits/vector.tcc:116
  403f50:	48 8b 7c 24 28       	mov    0x28(%rsp),%rdi
  403f55:	48 89 44 24 10       	mov    %rax,0x10(%rsp)
  403f5a:	48 89 74 24 08       	mov    %rsi,0x8(%rsp)
  403f5f:	e8 5c 40 00 00       	callq  407fc0 <_ZSt7forwardISt6vectorIiSaIiEEEOT_RNSt16remove_referenceIS3_E4typeE>
  403f64:	48 8b 7c 24 10       	mov    0x10(%rsp),%rdi
  403f69:	48 8b 74 24 08       	mov    0x8(%rsp),%rsi
/usr/bin/../lib/gcc/x86_64-linux-gnu/9/../../../../include/c++/9/bits/vector.tcc:115
  403f6e:	48 89 c2             	mov    %rax,%rdx
  403f71:	e8 fa 3f 00 00       	callq  407f70 <_ZNSt16allocator_traitsISaISt6vectorIiSaIiEEEE9constructIS2_JS2_EEEvRS3_PT_DpOT0_>
  403f76:	48 8b 44 24 18       	mov    0x18(%rsp),%rax
/usr/bin/../lib/gcc/x86_64-linux-gnu/9/../../../../include/c++/9/bits/vector.tcc:117
  403f7b:	48 8b 48 08          	mov    0x8(%rax),%rcx
  403f7f:	48 83 c1 18          	add    $0x18,%rcx
  403f83:	48 89 48 08          	mov    %rcx,0x8(%rax)
/usr/bin/../lib/gcc/x86_64-linux-gnu/9/../../../../include/c++/9/bits/vector.tcc:119
  403f87:	eb 2b                	jmp    403fb4 <_ZNSt6vectorIS_IiSaIiEESaIS1_EE12emplace_backIJS1_EEERS1_DpOT_+0x94>
  403f89:	48 8b 7c 24 18       	mov    0x18(%rsp),%rdi
/usr/bin/../lib/gcc/x86_64-linux-gnu/9/../../../../include/c++/9/bits/vector.tcc:121
  403f8e:	e8 1d fd ff ff       	callq  403cb0 <_ZNSt6vectorIS_IiSaIiEESaIS1_EE3endEv>
  403f93:	48 89 44 24 20       	mov    %rax,0x20(%rsp)
  403f98:	48 8b 7c 24 28       	mov    0x28(%rsp),%rdi
  403f9d:	e8 1e 40 00 00       	callq  407fc0 <_ZSt7forwardISt6vectorIiSaIiEEEOT_RNSt16remove_referenceIS3_E4typeE>
  403fa2:	48 8b 74 24 20       	mov    0x20(%rsp),%rsi
  403fa7:	48 8b 7c 24 18       	mov    0x18(%rsp),%rdi
  403fac:	48 89 c2             	mov    %rax,%rdx
  403faf:	e8 1c 40 00 00       	callq  407fd0 <_ZNSt6vectorIS_IiSaIiEESaIS1_EE17_M_realloc_insertIJS1_EEEvN9__gnu_cxx17__normal_iteratorIPS1_S3_EEDpOT_>
  403fb4:	48 8b 7c 24 18       	mov    0x18(%rsp),%rdi
/usr/bin/../lib/gcc/x86_64-linux-gnu/9/../../../../include/c++/9/bits/vector.tcc:123
  403fb9:	e8 32 42 00 00       	callq  4081f0 <_ZNSt6vectorIS_IiSaIiEESaIS1_EE4backEv>
  403fbe:	48 83 c4 38          	add    $0x38,%rsp
  403fc2:	c3                   	retq   
  403fc3:	66 2e 0f 1f 84 00 00 	nopw   %cs:0x0(%rax,%rax,1)
  403fca:	00 00 00 
  403fcd:	0f 1f 00             	nopl   (%rax)

0000000000403fd0 <_ZN9__gnu_cxx17__normal_iteratorIPSt6vectorIiSaIiEES1_IS3_SaIS3_EEEppEv>:
_ZN9__gnu_cxx17__normal_iteratorIPSt6vectorIiSaIiEES1_IS3_SaIS3_EEEppEv():
/usr/bin/../lib/gcc/x86_64-linux-gnu/9/../../../../include/c++/9/bits/stl_iterator.h:828
  403fd0:	48 89 7c 24 f8       	mov    %rdi,-0x8(%rsp)
  403fd5:	48 8b 44 24 f8       	mov    -0x8(%rsp),%rax
/usr/bin/../lib/gcc/x86_64-linux-gnu/9/../../../../include/c++/9/bits/stl_iterator.h:829
  403fda:	48 8b 08             	mov    (%rax),%rcx
  403fdd:	48 83 c1 18          	add    $0x18,%rcx
  403fe1:	48 89 08             	mov    %rcx,(%rax)
/usr/bin/../lib/gcc/x86_64-linux-gnu/9/../../../../include/c++/9/bits/stl_iterator.h:830
  403fe4:	c3                   	retq   
  403fe5:	66 2e 0f 1f 84 00 00 	nopw   %cs:0x0(%rax,%rax,1)
  403fec:	00 00 00 
  403fef:	90                   	nop

0000000000403ff0 <_ZNKSt6vectorISt4pairIiiESaIS1_EE4sizeEv>:
_ZNKSt6vectorISt4pairIiiESaIS1_EE4sizeEv():
/usr/bin/../lib/gcc/x86_64-linux-gnu/9/../../../../include/c++/9/bits/stl_vector.h:916
  403ff0:	48 89 7c 24 f8       	mov    %rdi,-0x8(%rsp)
  403ff5:	48 8b 44 24 f8       	mov    -0x8(%rsp),%rax
  403ffa:	48 8b 48 08          	mov    0x8(%rax),%rcx
  403ffe:	48 8b 00             	mov    (%rax),%rax
  404001:	48 29 c1             	sub    %rax,%rcx
  404004:	48 c1 f9 03          	sar    $0x3,%rcx
  404008:	48 89 c8             	mov    %rcx,%rax
  40400b:	c3                   	retq   
  40400c:	0f 1f 40 00          	nopl   0x0(%rax)

0000000000404010 <_ZSt11make_uniqueIA_St6atomicIiEENSt9_MakeUniqIT_E7__arrayEm>:
_ZSt11make_uniqueIA_St6atomicIiEENSt9_MakeUniqIT_E7__arrayEm():
/usr/bin/../lib/gcc/x86_64-linux-gnu/9/../../../../include/c++/9/bits/unique_ptr.h:863
  404010:	48 83 ec 38          	sub    $0x38,%rsp
  404014:	48 89 f8             	mov    %rdi,%rax
  404017:	48 89 f9             	mov    %rdi,%rcx
  40401a:	48 89 4c 24 30       	mov    %rcx,0x30(%rsp)
  40401f:	48 89 74 24 28       	mov    %rsi,0x28(%rsp)
  404024:	48 8b 4c 24 28       	mov    0x28(%rsp),%rcx
  404029:	48 89 44 24 20       	mov    %rax,0x20(%rsp)
  40402e:	48 89 c8             	mov    %rcx,%rax
  404031:	b9 04 00 00 00       	mov    $0x4,%ecx
  404036:	48 f7 e1             	mul    %rcx
  404039:	41 0f 90 c0          	seto   %r8b
  40403d:	48 c7 c1 ff ff ff ff 	mov    $0xffffffffffffffff,%rcx
  404044:	48 0f 40 c1          	cmovo  %rcx,%rax
  404048:	48 89 7c 24 18       	mov    %rdi,0x18(%rsp)
  40404d:	48 89 c7             	mov    %rax,%rdi
  404050:	44 88 44 24 17       	mov    %r8b,0x17(%rsp)
  404055:	48 89 44 24 08       	mov    %rax,0x8(%rsp)
  40405a:	e8 f1 d2 ff ff       	callq  401350 <_Znam@plt>
  40405f:	31 f6                	xor    %esi,%esi
  404061:	48 89 c1             	mov    %rax,%rcx
  404064:	48 89 cf             	mov    %rcx,%rdi
  404067:	48 8b 4c 24 08       	mov    0x8(%rsp),%rcx
  40406c:	48 89 ca             	mov    %rcx,%rdx
  40406f:	48 89 04 24          	mov    %rax,(%rsp)
  404073:	e8 78 d2 ff ff       	callq  4012f0 <memset@plt>
  404078:	48 8b 7c 24 18       	mov    0x18(%rsp),%rdi
  40407d:	48 8b 34 24          	mov    (%rsp),%rsi
  404081:	e8 8a 49 00 00       	callq  408a10 <_ZNSt10unique_ptrIA_St6atomicIiESt14default_deleteIS2_EEC2IPS1_S4_vbEET_>
  404086:	48 8b 44 24 20       	mov    0x20(%rsp),%rax
  40408b:	48 83 c4 38          	add    $0x38,%rsp
  40408f:	c3                   	retq   

0000000000404090 <_ZNSt10unique_ptrIA_St6atomicIiESt14default_deleteIS2_EEaSEOS5_>:
_ZNSt10unique_ptrIA_St6atomicIiESt14default_deleteIS2_EEaSEOS5_():
/usr/bin/../lib/gcc/x86_64-linux-gnu/9/../../../../include/c++/9/bits/unique_ptr.h:573
  404090:	48 83 ec 28          	sub    $0x28,%rsp
  404094:	48 89 7c 24 20       	mov    %rdi,0x20(%rsp)
  404099:	48 89 74 24 18       	mov    %rsi,0x18(%rsp)
  40409e:	48 8b 44 24 20       	mov    0x20(%rsp),%rax
/usr/bin/../lib/gcc/x86_64-linux-gnu/9/../../../../include/c++/9/bits/unique_ptr.h:574
  4040a3:	48 8b 7c 24 18       	mov    0x18(%rsp),%rdi
  4040a8:	48 89 44 24 10       	mov    %rax,0x10(%rsp)
  4040ad:	e8 ce 4a 00 00       	callq  408b80 <_ZNSt10unique_ptrIA_St6atomicIiESt14default_deleteIS2_EE7releaseEv>
  4040b2:	48 8b 7c 24 10       	mov    0x10(%rsp),%rdi
  4040b7:	48 89 c6             	mov    %rax,%rsi
  4040ba:	e8 41 4a 00 00       	callq  408b00 <_ZNSt10unique_ptrIA_St6atomicIiESt14default_deleteIS2_EE5resetIPS1_vEEvT_>
/usr/bin/../lib/gcc/x86_64-linux-gnu/9/../../../../include/c++/9/bits/unique_ptr.h:575
  4040bf:	48 8b 7c 24 18       	mov    0x18(%rsp),%rdi
  4040c4:	e8 27 4b 00 00       	callq  408bf0 <_ZNSt10unique_ptrIA_St6atomicIiESt14default_deleteIS2_EE11get_deleterEv>
  4040c9:	48 89 c7             	mov    %rax,%rdi
  4040cc:	e8 0f 4b 00 00       	callq  408be0 <_ZSt7forwardISt14default_deleteIA_St6atomicIiEEEOT_RNSt16remove_referenceIS5_E4typeE>
  4040d1:	48 8b 7c 24 10       	mov    0x10(%rsp),%rdi
  4040d6:	48 89 44 24 08       	mov    %rax,0x8(%rsp)
  4040db:	e8 10 4b 00 00       	callq  408bf0 <_ZNSt10unique_ptrIA_St6atomicIiESt14default_deleteIS2_EE11get_deleterEv>
  4040e0:	48 8b 4c 24 10       	mov    0x10(%rsp),%rcx
  4040e5:	48 89 04 24          	mov    %rax,(%rsp)
/usr/bin/../lib/gcc/x86_64-linux-gnu/9/../../../../include/c++/9/bits/unique_ptr.h:576
  4040e9:	48 89 c8             	mov    %rcx,%rax
  4040ec:	48 83 c4 28          	add    $0x28,%rsp
  4040f0:	c3                   	retq   
  4040f1:	66 2e 0f 1f 84 00 00 	nopw   %cs:0x0(%rax,%rax,1)
  4040f8:	00 00 00 
  4040fb:	0f 1f 44 00 00       	nopl   0x0(%rax,%rax,1)

0000000000404100 <_ZNSt10unique_ptrIA_St6atomicIiESt14default_deleteIS2_EED2Ev>:
~unique_ptr():
/usr/bin/../lib/gcc/x86_64-linux-gnu/9/../../../../include/c++/9/bits/unique_ptr.h:556
  404100:	48 83 ec 28          	sub    $0x28,%rsp
  404104:	48 89 7c 24 20       	mov    %rdi,0x20(%rsp)
  404109:	48 8b 44 24 20       	mov    0x20(%rsp),%rax
/usr/bin/../lib/gcc/x86_64-linux-gnu/9/../../../../include/c++/9/bits/unique_ptr.h:557
  40410e:	48 89 c7             	mov    %rax,%rdi
  404111:	48 89 44 24 10       	mov    %rax,0x10(%rsp)
  404116:	e8 75 49 00 00       	callq  408a90 <_ZNSt15__uniq_ptr_implISt6atomicIiESt14default_deleteIA_S1_EE6_M_ptrEv>
  40411b:	48 89 44 24 08       	mov    %rax,0x8(%rsp)
  404120:	eb 00                	jmp    404122 <_ZNSt10unique_ptrIA_St6atomicIiESt14default_deleteIS2_EED2Ev+0x22>
  404122:	48 8b 44 24 08       	mov    0x8(%rsp),%rax
  404127:	48 89 44 24 18       	mov    %rax,0x18(%rsp)
/usr/bin/../lib/gcc/x86_64-linux-gnu/9/../../../../include/c++/9/bits/unique_ptr.h:558
  40412c:	48 8b 4c 24 18       	mov    0x18(%rsp),%rcx
  404131:	48 83 39 00          	cmpq   $0x0,(%rcx)
  404135:	74 1e                	je     404155 <_ZNSt10unique_ptrIA_St6atomicIiESt14default_deleteIS2_EED2Ev+0x55>
  404137:	48 8b 7c 24 10       	mov    0x10(%rsp),%rdi
/usr/bin/../lib/gcc/x86_64-linux-gnu/9/../../../../include/c++/9/bits/unique_ptr.h:559
  40413c:	e8 af 4a 00 00       	callq  408bf0 <_ZNSt10unique_ptrIA_St6atomicIiESt14default_deleteIS2_EE11get_deleterEv>
  404141:	48 8b 4c 24 18       	mov    0x18(%rsp),%rcx
  404146:	48 8b 31             	mov    (%rcx),%rsi
  404149:	48 89 c7             	mov    %rax,%rdi
  40414c:	e8 1f 4b 00 00       	callq  408c70 <_ZNKSt14default_deleteIA_St6atomicIiEEclIS1_EENSt9enable_ifIXsr14is_convertibleIPA_T_PS2_EE5valueEvE4typeEPS6_>
  404151:	eb 00                	jmp    404153 <_ZNSt10unique_ptrIA_St6atomicIiESt14default_deleteIS2_EED2Ev+0x53>
  404153:	eb 00                	jmp    404155 <_ZNSt10unique_ptrIA_St6atomicIiESt14default_deleteIS2_EED2Ev+0x55>
/usr/bin/../lib/gcc/x86_64-linux-gnu/9/../../../../include/c++/9/bits/unique_ptr.h:560
  404155:	48 8b 44 24 18       	mov    0x18(%rsp),%rax
  40415a:	48 c7 00 00 00 00 00 	movq   $0x0,(%rax)
/usr/bin/../lib/gcc/x86_64-linux-gnu/9/../../../../include/c++/9/bits/unique_ptr.h:561
  404161:	48 83 c4 28          	add    $0x28,%rsp
  404165:	c3                   	retq   
/usr/bin/../lib/gcc/x86_64-linux-gnu/9/../../../../include/c++/9/bits/unique_ptr.h:557
  404166:	48 89 c7             	mov    %rax,%rdi
  404169:	89 54 24 04          	mov    %edx,0x4(%rsp)
  40416d:	e8 2e ed ff ff       	callq  402ea0 <__clang_call_terminate>
_ZNSt10unique_ptrIA_St6atomicIiESt14default_deleteIS2_EED2Ev():
  404172:	66 2e 0f 1f 84 00 00 	nopw   %cs:0x0(%rax,%rax,1)
  404179:	00 00 00 
  40417c:	0f 1f 40 00          	nopl   0x0(%rax)

0000000000404180 <_ZNKSt6vectorIS_ISt4pairIiiESaIS1_EESaIS3_EE4sizeEv>:
_ZNKSt6vectorIS_ISt4pairIiiESaIS1_EESaIS3_EE4sizeEv():
/usr/bin/../lib/gcc/x86_64-linux-gnu/9/../../../../include/c++/9/bits/stl_vector.h:916
  404180:	48 89 7c 24 f8       	mov    %rdi,-0x8(%rsp)
  404185:	48 8b 44 24 f8       	mov    -0x8(%rsp),%rax
  40418a:	48 8b 48 08          	mov    0x8(%rax),%rcx
  40418e:	48 8b 00             	mov    (%rax),%rax
  404191:	48 29 c1             	sub    %rax,%rcx
  404194:	48 89 c8             	mov    %rcx,%rax
  404197:	48 99                	cqto   
  404199:	b9 18 00 00 00       	mov    $0x18,%ecx
  40419e:	48 f7 f9             	idiv   %rcx
  4041a1:	c3                   	retq   
  4041a2:	66 2e 0f 1f 84 00 00 	nopw   %cs:0x0(%rax,%rax,1)
  4041a9:	00 00 00 
  4041ac:	0f 1f 40 00          	nopl   0x0(%rax)

00000000004041b0 <_ZNSt6vectorISt4pairIiiESaIS1_EEixEm>:
_ZNSt6vectorISt4pairIiiESaIS1_EEixEm():
/usr/bin/../lib/gcc/x86_64-linux-gnu/9/../../../../include/c++/9/bits/stl_vector.h:1041
  4041b0:	48 89 7c 24 f8       	mov    %rdi,-0x8(%rsp)
  4041b5:	48 89 74 24 f0       	mov    %rsi,-0x10(%rsp)
  4041ba:	48 8b 44 24 f8       	mov    -0x8(%rsp),%rax
/usr/bin/../lib/gcc/x86_64-linux-gnu/9/../../../../include/c++/9/bits/stl_vector.h:1043
  4041bf:	48 8b 00             	mov    (%rax),%rax
  4041c2:	48 8b 4c 24 f0       	mov    -0x10(%rsp),%rcx
  4041c7:	48 c1 e1 03          	shl    $0x3,%rcx
  4041cb:	48 01 c8             	add    %rcx,%rax
  4041ce:	c3                   	retq   
  4041cf:	90                   	nop

00000000004041d0 <_ZNSt5queueIiSt5dequeIiSaIiEEEC2IS2_vEEv>:
queue<std::deque<int, std::allocator<int> >, void>():
/usr/bin/../lib/gcc/x86_64-linux-gnu/9/../../../../include/c++/9/bits/stl_queue.h:161
  4041d0:	50                   	push   %rax
  4041d1:	48 89 3c 24          	mov    %rdi,(%rsp)
  4041d5:	48 8b 3c 24          	mov    (%rsp),%rdi
  4041d9:	e8 f2 4b 00 00       	callq  408dd0 <_ZNSt5dequeIiSaIiEEC2Ev>
  4041de:	58                   	pop    %rax
  4041df:	c3                   	retq   

00000000004041e0 <_ZNSt5queueIiSt5dequeIiSaIiEEE4pushERKi>:
_ZNSt5queueIiSt5dequeIiSaIiEEE4pushERKi():
/usr/bin/../lib/gcc/x86_64-linux-gnu/9/../../../../include/c++/9/bits/stl_queue.h:260
  4041e0:	48 83 ec 18          	sub    $0x18,%rsp
  4041e4:	48 89 7c 24 10       	mov    %rdi,0x10(%rsp)
  4041e9:	48 89 74 24 08       	mov    %rsi,0x8(%rsp)
  4041ee:	48 8b 7c 24 10       	mov    0x10(%rsp),%rdi
  4041f3:	48 8b 74 24 08       	mov    0x8(%rsp),%rsi
  4041f8:	e8 03 54 00 00       	callq  409600 <_ZNSt5dequeIiSaIiEE9push_backERKi>
  4041fd:	48 83 c4 18          	add    $0x18,%rsp
  404201:	c3                   	retq   
  404202:	66 2e 0f 1f 84 00 00 	nopw   %cs:0x0(%rax,%rax,1)
  404209:	00 00 00 
  40420c:	0f 1f 40 00          	nopl   0x0(%rax)

0000000000404210 <_ZN8Solution33Multiple_Processor_InitializationEv>:
_ZN8Solution33Multiple_Processor_InitializationEv():
/home/hoss/Documents/algorithms/server_layer/server/multi_threader.cpp:520
  404210:	48 83 ec 28          	sub    $0x28,%rsp
  404214:	48 89 7c 24 20       	mov    %rdi,0x20(%rsp)
  404219:	48 8b 44 24 20       	mov    0x20(%rsp),%rax
/home/hoss/Documents/algorithms/server_layer/server/multi_threader.cpp:521
  40421e:	48 89 c1             	mov    %rax,%rcx
  404221:	48 81 c1 dc 00 00 00 	add    $0xdc,%rcx
  404228:	48 89 cf             	mov    %rcx,%rdi
  40422b:	be 01 00 00 00       	mov    $0x1,%esi
  404230:	48 89 44 24 18       	mov    %rax,0x18(%rsp)
  404235:	e8 d6 5b 00 00       	callq  409e10 <_ZNSt13__atomic_baseIiEaSEi>
  40423a:	31 f6                	xor    %esi,%esi
  40423c:	48 8b 44 24 18       	mov    0x18(%rsp),%rax
/home/hoss/Documents/algorithms/server_layer/server/multi_threader.cpp:522
  404241:	48 05 dc 00 00 00    	add    $0xdc,%rax
  404247:	48 89 c7             	mov    %rax,%rdi
  40424a:	e8 81 5c 00 00       	callq  409ed0 <_ZNSt13__atomic_baseIiEppEi>
  40424f:	48 8b 4c 24 18       	mov    0x18(%rsp),%rcx
  404254:	48 89 cf             	mov    %rcx,%rdi
  404257:	89 44 24 14          	mov    %eax,0x14(%rsp)
  40425b:	e8 30 5d 00 00       	callq  409f90 <_ZNKSt13__atomic_baseIjEcvjEv>
  404260:	8b 54 24 14          	mov    0x14(%rsp),%edx
  404264:	39 c2                	cmp    %eax,%edx
  404266:	77 7d                	ja     4042e5 <_ZN8Solution33Multiple_Processor_InitializationEv+0xd5>
  404268:	48 8b 44 24 18       	mov    0x18(%rsp),%rax
/home/hoss/Documents/algorithms/server_layer/server/multi_threader.cpp:523
  40426d:	48 05 38 9d 00 00    	add    $0x9d38,%rax
  404273:	48 8b 4c 24 18       	mov    0x18(%rsp),%rcx
  404278:	48 81 c1 dc 00 00 00 	add    $0xdc,%rcx
  40427f:	48 89 cf             	mov    %rcx,%rdi
  404282:	48 89 44 24 08       	mov    %rax,0x8(%rsp)
  404287:	e8 b4 5d 00 00       	callq  40a040 <_ZNKSt13__atomic_baseIiEcviEv>
  40428c:	31 d2                	xor    %edx,%edx
  40428e:	89 d6                	mov    %edx,%esi
  404290:	48 63 c8             	movslq %eax,%rcx
  404293:	48 c1 e1 03          	shl    $0x3,%rcx
  404297:	48 8b 7c 24 08       	mov    0x8(%rsp),%rdi
  40429c:	48 01 cf             	add    %rcx,%rdi
  40429f:	48 8b 4c 24 18       	mov    0x18(%rsp),%rcx
  4042a4:	48 ba f0 a0 40 00 00 	movabs $0x40a0f0,%rdx
  4042ab:	00 00 00 
  4042ae:	e8 2d d1 ff ff       	callq  4013e0 <pthread_create@plt>
  4042b3:	83 f8 00             	cmp    $0x0,%eax
  4042b6:	75 28                	jne    4042e0 <_ZN8Solution33Multiple_Processor_InitializationEv+0xd0>
  4042b8:	48 8b 44 24 18       	mov    0x18(%rsp),%rax
/home/hoss/Documents/algorithms/server_layer/server/multi_threader.cpp:525
  4042bd:	48 05 dc 00 00 00    	add    $0xdc,%rax
  4042c3:	48 89 c7             	mov    %rax,%rdi
  4042c6:	e8 75 5d 00 00       	callq  40a040 <_ZNKSt13__atomic_baseIiEcviEv>
  4042cb:	48 63 c8             	movslq %eax,%rcx
  4042ce:	48 8b 54 24 18       	mov    0x18(%rsp),%rdx
  4042d3:	48 8b bc ca 38 9d 00 	mov    0x9d38(%rdx,%rcx,8),%rdi
  4042da:	00 
  4042db:	e8 60 d1 ff ff       	callq  401440 <pthread_detach@plt>
/home/hoss/Documents/algorithms/server_layer/server/multi_threader.cpp:522
  4042e0:	e9 55 ff ff ff       	jmpq   40423a <_ZN8Solution33Multiple_Processor_InitializationEv+0x2a>
/home/hoss/Documents/algorithms/server_layer/server/multi_threader.cpp:532
  4042e5:	48 83 c4 28          	add    $0x28,%rsp
  4042e9:	c3                   	retq   
  4042ea:	66 0f 1f 44 00 00    	nopw   0x0(%rax,%rax,1)

00000000004042f0 <_ZNSt5queueIiSt5dequeIiSaIiEEED2Ev>:
~queue():
/usr/bin/../lib/gcc/x86_64-linux-gnu/9/../../../../include/c++/9/bits/stl_queue.h:96
  4042f0:	50                   	push   %rax
  4042f1:	48 89 3c 24          	mov    %rdi,(%rsp)
  4042f5:	48 8b 3c 24          	mov    (%rsp),%rdi
  4042f9:	e8 f2 69 00 00       	callq  40acf0 <_ZNSt5dequeIiSaIiEED2Ev>
  4042fe:	58                   	pop    %rax
  4042ff:	c3                   	retq   

0000000000404300 <_ZNSt6vectorIS_ISt4pairIiiESaIS1_EESaIS3_EED2Ev>:
~vector():
/usr/bin/../lib/gcc/x86_64-linux-gnu/9/../../../../include/c++/9/bits/stl_vector.h:676
  404300:	48 83 ec 38          	sub    $0x38,%rsp
  404304:	48 89 7c 24 30       	mov    %rdi,0x30(%rsp)
  404309:	48 8b 44 24 30       	mov    0x30(%rsp),%rax
/usr/bin/../lib/gcc/x86_64-linux-gnu/9/../../../../include/c++/9/bits/stl_vector.h:677
  40430e:	48 8b 38             	mov    (%rax),%rdi
  404311:	48 8b 70 08          	mov    0x8(%rax),%rsi
  404315:	48 89 7c 24 18       	mov    %rdi,0x18(%rsp)
/usr/bin/../lib/gcc/x86_64-linux-gnu/9/../../../../include/c++/9/bits/stl_vector.h:678
  40431a:	48 89 c7             	mov    %rax,%rdi
  40431d:	48 89 44 24 10       	mov    %rax,0x10(%rsp)
  404322:	48 89 74 24 08       	mov    %rsi,0x8(%rsp)
  404327:	e8 e4 22 00 00       	callq  406610 <_ZNSt12_Vector_baseISt6vectorISt4pairIiiESaIS2_EESaIS4_EE19_M_get_Tp_allocatorEv>
  40432c:	48 8b 7c 24 18       	mov    0x18(%rsp),%rdi
  404331:	48 8b 74 24 08       	mov    0x8(%rsp),%rsi
/usr/bin/../lib/gcc/x86_64-linux-gnu/9/../../../../include/c++/9/bits/stl_vector.h:677
  404336:	48 89 c2             	mov    %rax,%rdx
  404339:	e8 a2 6b 00 00       	callq  40aee0 <_ZSt8_DestroyIPSt6vectorISt4pairIiiESaIS2_EES4_EvT_S6_RSaIT0_E>
  40433e:	eb 00                	jmp    404340 <_ZNSt6vectorIS_ISt4pairIiiESaIS1_EESaIS3_EED2Ev+0x40>
  404340:	48 8b 44 24 10       	mov    0x10(%rsp),%rax
/usr/bin/../lib/gcc/x86_64-linux-gnu/9/../../../../include/c++/9/bits/stl_vector.h:680
  404345:	48 89 c7             	mov    %rax,%rdi
  404348:	e8 83 1f 00 00       	callq  4062d0 <_ZNSt12_Vector_baseISt6vectorISt4pairIiiESaIS2_EESaIS4_EED2Ev>
  40434d:	48 83 c4 38          	add    $0x38,%rsp
  404351:	c3                   	retq   
  404352:	48 89 44 24 28       	mov    %rax,0x28(%rsp)
  404357:	89 54 24 24          	mov    %edx,0x24(%rsp)
  40435b:	48 8b 44 24 10       	mov    0x10(%rsp),%rax
  404360:	48 89 c7             	mov    %rax,%rdi
  404363:	e8 68 1f 00 00       	callq  4062d0 <_ZNSt12_Vector_baseISt6vectorISt4pairIiiESaIS2_EESaIS4_EED2Ev>
  404368:	48 8b 7c 24 28       	mov    0x28(%rsp),%rdi
  40436d:	e8 2e eb ff ff       	callq  402ea0 <__clang_call_terminate>
_ZNSt6vectorIS_ISt4pairIiiESaIS1_EESaIS3_EED2Ev():
  404372:	66 2e 0f 1f 84 00 00 	nopw   %cs:0x0(%rax,%rax,1)
  404379:	00 00 00 
  40437c:	0f 1f 40 00          	nopl   0x0(%rax)

0000000000404380 <_ZNSt6vectorIbSaIbEED2Ev>:
~vector():
/usr/bin/../lib/gcc/x86_64-linux-gnu/9/../../../../include/c++/9/bits/stl_bvector.h:714
  404380:	50                   	push   %rax
  404381:	48 89 3c 24          	mov    %rdi,(%rsp)
  404385:	48 8b 04 24          	mov    (%rsp),%rax
  404389:	48 89 c7             	mov    %rax,%rdi
  40438c:	e8 8f 17 00 00       	callq  405b20 <_ZNSt13_Bvector_baseISaIbEED2Ev>
  404391:	58                   	pop    %rax
  404392:	c3                   	retq   
_ZNSt6vectorIbSaIbEED2Ev():
  404393:	66 2e 0f 1f 84 00 00 	nopw   %cs:0x0(%rax,%rax,1)
  40439a:	00 00 00 
  40439d:	0f 1f 00             	nopl   (%rax)

00000000004043a0 <_ZNKSt6vectorIiSaIiEE4sizeEv>:
_ZNKSt6vectorIiSaIiEE4sizeEv():
/usr/bin/../lib/gcc/x86_64-linux-gnu/9/../../../../include/c++/9/bits/stl_vector.h:916
  4043a0:	48 89 7c 24 f8       	mov    %rdi,-0x8(%rsp)
  4043a5:	48 8b 44 24 f8       	mov    -0x8(%rsp),%rax
  4043aa:	48 8b 48 08          	mov    0x8(%rax),%rcx
  4043ae:	48 8b 00             	mov    (%rax),%rax
  4043b1:	48 29 c1             	sub    %rax,%rcx
  4043b4:	48 c1 f9 02          	sar    $0x2,%rcx
  4043b8:	48 89 c8             	mov    %rcx,%rax
  4043bb:	c3                   	retq   
  4043bc:	0f 1f 40 00          	nopl   0x0(%rax)

00000000004043c0 <_ZNSt6vectorIiSaIiEE14_M_fill_insertEN9__gnu_cxx17__normal_iteratorIPiS1_EEmRKi>:
_ZNSt6vectorIiSaIiEE14_M_fill_insertEN9__gnu_cxx17__normal_iteratorIPiS1_EEmRKi():
/usr/bin/../lib/gcc/x86_64-linux-gnu/9/../../../../include/c++/9/bits/vector.tcc:511
  4043c0:	48 81 ec 88 01 00 00 	sub    $0x188,%rsp
  4043c7:	48 89 b4 24 80 01 00 	mov    %rsi,0x180(%rsp)
  4043ce:	00 
  4043cf:	48 89 bc 24 78 01 00 	mov    %rdi,0x178(%rsp)
  4043d6:	00 
  4043d7:	48 89 94 24 70 01 00 	mov    %rdx,0x170(%rsp)
  4043de:	00 
  4043df:	48 89 8c 24 68 01 00 	mov    %rcx,0x168(%rsp)
  4043e6:	00 
  4043e7:	48 8b 84 24 78 01 00 	mov    0x178(%rsp),%rax
  4043ee:	00 
/usr/bin/../lib/gcc/x86_64-linux-gnu/9/../../../../include/c++/9/bits/vector.tcc:512
  4043ef:	48 83 bc 24 70 01 00 	cmpq   $0x0,0x170(%rsp)
  4043f6:	00 00 
  4043f8:	48 89 84 24 f8 00 00 	mov    %rax,0xf8(%rsp)
  4043ff:	00 
  404400:	0f 84 b5 06 00 00    	je     404abb <_ZNSt6vectorIiSaIiEE14_M_fill_insertEN9__gnu_cxx17__normal_iteratorIPiS1_EEmRKi+0x6fb>
  404406:	48 8b 84 24 f8 00 00 	mov    0xf8(%rsp),%rax
  40440d:	00 
/usr/bin/../lib/gcc/x86_64-linux-gnu/9/../../../../include/c++/9/bits/vector.tcc:514
  40440e:	48 8b 48 10          	mov    0x10(%rax),%rcx
/usr/bin/../lib/gcc/x86_64-linux-gnu/9/../../../../include/c++/9/bits/vector.tcc:515
  404412:	48 8b 50 08          	mov    0x8(%rax),%rdx
  404416:	48 29 d1             	sub    %rdx,%rcx
  404419:	48 c1 f9 02          	sar    $0x2,%rcx
  40441d:	48 3b 8c 24 70 01 00 	cmp    0x170(%rsp),%rcx
  404424:	00 
/usr/bin/../lib/gcc/x86_64-linux-gnu/9/../../../../include/c++/9/bits/vector.tcc:514
  404425:	0f 82 17 03 00 00    	jb     404742 <_ZNSt6vectorIiSaIiEE14_M_fill_insertEN9__gnu_cxx17__normal_iteratorIPiS1_EEmRKi+0x382>
/usr/bin/../lib/gcc/x86_64-linux-gnu/9/../../../../include/c++/9/bits/vector.tcc:520
  40442b:	48 8b 94 24 68 01 00 	mov    0x168(%rsp),%rdx
  404432:	00 
  404433:	48 8d 84 24 58 01 00 	lea    0x158(%rsp),%rax
  40443a:	00 
  40443b:	48 89 c7             	mov    %rax,%rdi
  40443e:	48 8b b4 24 f8 00 00 	mov    0xf8(%rsp),%rsi
  404445:	00 
  404446:	48 89 84 24 f0 00 00 	mov    %rax,0xf0(%rsp)
  40444d:	00 
  40444e:	e8 4d 07 00 00       	callq  404ba0 <_ZNSt6vectorIiSaIiEE16_Temporary_valueC2IJRKiEEEPS1_DpOT_>
  404453:	48 8b bc 24 f0 00 00 	mov    0xf0(%rsp),%rdi
  40445a:	00 
/usr/bin/../lib/gcc/x86_64-linux-gnu/9/../../../../include/c++/9/bits/vector.tcc:521
  40445b:	e8 a0 07 00 00       	callq  404c00 <_ZNSt6vectorIiSaIiEE16_Temporary_value6_M_valEv>
  404460:	48 89 84 24 e8 00 00 	mov    %rax,0xe8(%rsp)
  404467:	00 
  404468:	eb 00                	jmp    40446a <_ZNSt6vectorIiSaIiEE14_M_fill_insertEN9__gnu_cxx17__normal_iteratorIPiS1_EEmRKi+0xaa>
  40446a:	48 8b 84 24 e8 00 00 	mov    0xe8(%rsp),%rax
  404471:	00 
  404472:	48 89 84 24 50 01 00 	mov    %rax,0x150(%rsp)
  404479:	00 
  40447a:	48 8b bc 24 f8 00 00 	mov    0xf8(%rsp),%rdi
  404481:	00 
/usr/bin/../lib/gcc/x86_64-linux-gnu/9/../../../../include/c++/9/bits/vector.tcc:523
  404482:	e8 59 06 00 00       	callq  404ae0 <_ZNSt6vectorIiSaIiEE3endEv>
  404487:	48 89 84 24 30 01 00 	mov    %rax,0x130(%rsp)
  40448e:	00 
  40448f:	48 8d bc 24 30 01 00 	lea    0x130(%rsp),%rdi
  404496:	00 
  404497:	48 8d b4 24 80 01 00 	lea    0x180(%rsp),%rsi
  40449e:	00 
  40449f:	e8 6c 07 00 00       	callq  404c10 <_ZN9__gnu_cxxmiIPiSt6vectorIiSaIiEEEENS_17__normal_iteratorIT_T0_E15difference_typeERKS8_SB_>
  4044a4:	48 89 84 24 38 01 00 	mov    %rax,0x138(%rsp)
  4044ab:	00 
  4044ac:	48 8b 84 24 f8 00 00 	mov    0xf8(%rsp),%rax
  4044b3:	00 
/usr/bin/../lib/gcc/x86_64-linux-gnu/9/../../../../include/c++/9/bits/vector.tcc:524
  4044b4:	48 8b 48 08          	mov    0x8(%rax),%rcx
  4044b8:	48 89 8c 24 28 01 00 	mov    %rcx,0x128(%rsp)
  4044bf:	00 
/usr/bin/../lib/gcc/x86_64-linux-gnu/9/../../../../include/c++/9/bits/vector.tcc:525
  4044c0:	48 8b 8c 24 38 01 00 	mov    0x138(%rsp),%rcx
  4044c7:	00 
  4044c8:	48 3b 8c 24 70 01 00 	cmp    0x170(%rsp),%rcx
  4044cf:	00 
  4044d0:	0f 86 2a 01 00 00    	jbe    404600 <_ZNSt6vectorIiSaIiEE14_M_fill_insertEN9__gnu_cxx17__normal_iteratorIPiS1_EEmRKi+0x240>
  4044d6:	48 8b 84 24 f8 00 00 	mov    0xf8(%rsp),%rax
  4044dd:	00 
/usr/bin/../lib/gcc/x86_64-linux-gnu/9/../../../../include/c++/9/bits/vector.tcc:528
  4044de:	48 8b 48 08          	mov    0x8(%rax),%rcx
  4044e2:	48 8b 94 24 70 01 00 	mov    0x170(%rsp),%rdx
  4044e9:	00 
  4044ea:	48 c1 e2 02          	shl    $0x2,%rdx
  4044ee:	48 89 ce             	mov    %rcx,%rsi
  4044f1:	48 29 d6             	sub    %rdx,%rsi
/usr/bin/../lib/gcc/x86_64-linux-gnu/9/../../../../include/c++/9/bits/vector.tcc:531
  4044f4:	48 89 c7             	mov    %rax,%rdi
  4044f7:	48 89 8c 24 e0 00 00 	mov    %rcx,0xe0(%rsp)
  4044fe:	00 
  4044ff:	48 89 b4 24 d8 00 00 	mov    %rsi,0xd8(%rsp)
  404506:	00 
  404507:	e8 a4 07 00 00       	callq  404cb0 <_ZNSt12_Vector_baseIiSaIiEE19_M_get_Tp_allocatorEv>
  40450c:	48 8b bc 24 d8 00 00 	mov    0xd8(%rsp),%rdi
  404513:	00 
  404514:	48 8b b4 24 e0 00 00 	mov    0xe0(%rsp),%rsi
  40451b:	00 
  40451c:	48 8b 94 24 e0 00 00 	mov    0xe0(%rsp),%rdx
  404523:	00 
/usr/bin/../lib/gcc/x86_64-linux-gnu/9/../../../../include/c++/9/bits/vector.tcc:528
  404524:	48 89 c1             	mov    %rax,%rcx
  404527:	e8 24 07 00 00       	callq  404c50 <_ZSt22__uninitialized_move_aIPiS0_SaIiEET0_T_S3_S2_RT1_>
  40452c:	eb 00                	jmp    40452e <_ZNSt6vectorIiSaIiEE14_M_fill_insertEN9__gnu_cxx17__normal_iteratorIPiS1_EEmRKi+0x16e>
/usr/bin/../lib/gcc/x86_64-linux-gnu/9/../../../../include/c++/9/bits/vector.tcc:532
  40452e:	48 8b 84 24 70 01 00 	mov    0x170(%rsp),%rax
  404535:	00 
  404536:	48 8b 8c 24 f8 00 00 	mov    0xf8(%rsp),%rcx
  40453d:	00 
  40453e:	48 8b 51 08          	mov    0x8(%rcx),%rdx
  404542:	48 8d 04 82          	lea    (%rdx,%rax,4),%rax
  404546:	48 89 41 08          	mov    %rax,0x8(%rcx)
  40454a:	48 8d bc 24 80 01 00 	lea    0x180(%rsp),%rdi
  404551:	00 
/usr/bin/../lib/gcc/x86_64-linux-gnu/9/../../../../include/c++/9/bits/vector.tcc:534
  404552:	e8 b9 07 00 00       	callq  404d10 <_ZNK9__gnu_cxx17__normal_iteratorIPiSt6vectorIiSaIiEEE4baseEv>
  404557:	48 8b 38             	mov    (%rax),%rdi
  40455a:	48 8b 84 24 28 01 00 	mov    0x128(%rsp),%rax
  404561:	00 
  404562:	48 8b 8c 24 70 01 00 	mov    0x170(%rsp),%rcx
  404569:	00 
  40456a:	48 c1 e1 02          	shl    $0x2,%rcx
  40456e:	48 89 c2             	mov    %rax,%rdx
  404571:	48 29 ca             	sub    %rcx,%rdx
  404574:	48 89 d6             	mov    %rdx,%rsi
  404577:	48 89 c2             	mov    %rax,%rdx
  40457a:	e8 41 07 00 00       	callq  404cc0 <_ZSt13move_backwardIPiS0_ET0_T_S2_S1_>
  40457f:	eb 00                	jmp    404581 <_ZNSt6vectorIiSaIiEE14_M_fill_insertEN9__gnu_cxx17__normal_iteratorIPiS1_EEmRKi+0x1c1>
  404581:	48 8d 84 24 80 01 00 	lea    0x180(%rsp),%rax
  404588:	00 
/usr/bin/../lib/gcc/x86_64-linux-gnu/9/../../../../include/c++/9/bits/vector.tcc:536
  404589:	48 89 c7             	mov    %rax,%rdi
  40458c:	48 89 84 24 d0 00 00 	mov    %rax,0xd0(%rsp)
  404593:	00 
  404594:	e8 77 07 00 00       	callq  404d10 <_ZNK9__gnu_cxx17__normal_iteratorIPiSt6vectorIiSaIiEEE4baseEv>
  404599:	48 8b 38             	mov    (%rax),%rdi
  40459c:	48 8b 84 24 d0 00 00 	mov    0xd0(%rsp),%rax
  4045a3:	00 
  4045a4:	48 89 bc 24 c8 00 00 	mov    %rdi,0xc8(%rsp)
  4045ab:	00 
  4045ac:	48 89 c7             	mov    %rax,%rdi
  4045af:	e8 5c 07 00 00       	callq  404d10 <_ZNK9__gnu_cxx17__normal_iteratorIPiSt6vectorIiSaIiEEE4baseEv>
  4045b4:	48 8b 00             	mov    (%rax),%rax
  4045b7:	48 8b 8c 24 70 01 00 	mov    0x170(%rsp),%rcx
  4045be:	00 
  4045bf:	48 8d 34 88          	lea    (%rax,%rcx,4),%rsi
/usr/bin/../lib/gcc/x86_64-linux-gnu/9/../../../../include/c++/9/bits/vector.tcc:537
  4045c3:	48 8b 94 24 50 01 00 	mov    0x150(%rsp),%rdx
  4045ca:	00 
  4045cb:	48 8b bc 24 c8 00 00 	mov    0xc8(%rsp),%rdi
  4045d2:	00 
/usr/bin/../lib/gcc/x86_64-linux-gnu/9/../../../../include/c++/9/bits/vector.tcc:536
  4045d3:	e8 48 07 00 00       	callq  404d20 <_ZSt4fillIPiiEvT_S1_RKT0_>
  4045d8:	eb 00                	jmp    4045da <_ZNSt6vectorIiSaIiEE14_M_fill_insertEN9__gnu_cxx17__normal_iteratorIPiS1_EEmRKi+0x21a>
/usr/bin/../lib/gcc/x86_64-linux-gnu/9/../../../../include/c++/9/bits/vector.tcc:538
  4045da:	e9 51 01 00 00       	jmpq   404730 <_ZNSt6vectorIiSaIiEE14_M_fill_insertEN9__gnu_cxx17__normal_iteratorIPiS1_EEmRKi+0x370>
/usr/bin/../lib/gcc/x86_64-linux-gnu/9/../../../../include/c++/9/bits/vector.tcc:606
  4045df:	48 89 84 24 48 01 00 	mov    %rax,0x148(%rsp)
  4045e6:	00 
  4045e7:	89 94 24 44 01 00 00 	mov    %edx,0x144(%rsp)
/usr/bin/../lib/gcc/x86_64-linux-gnu/9/../../../../include/c++/9/bits/vector.tcc:555
  4045ee:	48 8d bc 24 58 01 00 	lea    0x158(%rsp),%rdi
  4045f5:	00 
  4045f6:	e8 b5 07 00 00       	callq  404db0 <_ZNSt6vectorIiSaIiEE16_Temporary_valueD2Ev>
  4045fb:	e9 c3 04 00 00       	jmpq   404ac3 <_ZNSt6vectorIiSaIiEE14_M_fill_insertEN9__gnu_cxx17__normal_iteratorIPiS1_EEmRKi+0x703>
  404600:	48 8b 84 24 f8 00 00 	mov    0xf8(%rsp),%rax
  404607:	00 
/usr/bin/../lib/gcc/x86_64-linux-gnu/9/../../../../include/c++/9/bits/vector.tcc:543
  404608:	48 8b 78 08          	mov    0x8(%rax),%rdi
/usr/bin/../lib/gcc/x86_64-linux-gnu/9/../../../../include/c++/9/bits/vector.tcc:544
  40460c:	48 8b 8c 24 70 01 00 	mov    0x170(%rsp),%rcx
  404613:	00 
  404614:	48 8b 94 24 38 01 00 	mov    0x138(%rsp),%rdx
  40461b:	00 
  40461c:	48 29 d1             	sub    %rdx,%rcx
/usr/bin/../lib/gcc/x86_64-linux-gnu/9/../../../../include/c++/9/bits/vector.tcc:545
  40461f:	48 8b 94 24 50 01 00 	mov    0x150(%rsp),%rdx
  404626:	00 
  404627:	48 89 bc 24 c0 00 00 	mov    %rdi,0xc0(%rsp)
  40462e:	00 
/usr/bin/../lib/gcc/x86_64-linux-gnu/9/../../../../include/c++/9/bits/vector.tcc:546
  40462f:	48 89 c7             	mov    %rax,%rdi
  404632:	48 89 8c 24 b8 00 00 	mov    %rcx,0xb8(%rsp)
  404639:	00 
  40463a:	48 89 94 24 b0 00 00 	mov    %rdx,0xb0(%rsp)
  404641:	00 
  404642:	e8 69 06 00 00       	callq  404cb0 <_ZNSt12_Vector_baseIiSaIiEE19_M_get_Tp_allocatorEv>
  404647:	48 8b bc 24 c0 00 00 	mov    0xc0(%rsp),%rdi
  40464e:	00 
  40464f:	48 8b b4 24 b8 00 00 	mov    0xb8(%rsp),%rsi
  404656:	00 
  404657:	48 8b 94 24 b0 00 00 	mov    0xb0(%rsp),%rdx
  40465e:	00 
/usr/bin/../lib/gcc/x86_64-linux-gnu/9/../../../../include/c++/9/bits/vector.tcc:543
  40465f:	48 89 c1             	mov    %rax,%rcx
  404662:	e8 09 07 00 00       	callq  404d70 <_ZSt24__uninitialized_fill_n_aIPimiiET_S1_T0_RKT1_RSaIT2_E>
  404667:	48 89 84 24 a8 00 00 	mov    %rax,0xa8(%rsp)
  40466e:	00 
  40466f:	eb 00                	jmp    404671 <_ZNSt6vectorIiSaIiEE14_M_fill_insertEN9__gnu_cxx17__normal_iteratorIPiS1_EEmRKi+0x2b1>
  404671:	48 8b 84 24 f8 00 00 	mov    0xf8(%rsp),%rax
  404678:	00 
  404679:	48 8b 8c 24 a8 00 00 	mov    0xa8(%rsp),%rcx
  404680:	00 
/usr/bin/../lib/gcc/x86_64-linux-gnu/9/../../../../include/c++/9/bits/vector.tcc:542
  404681:	48 89 48 08          	mov    %rcx,0x8(%rax)
  404685:	48 8d bc 24 80 01 00 	lea    0x180(%rsp),%rdi
  40468c:	00 
/usr/bin/../lib/gcc/x86_64-linux-gnu/9/../../../../include/c++/9/bits/vector.tcc:548
  40468d:	e8 7e 06 00 00       	callq  404d10 <_ZNK9__gnu_cxx17__normal_iteratorIPiSt6vectorIiSaIiEEE4baseEv>
  404692:	48 8b 38             	mov    (%rax),%rdi
  404695:	48 8b b4 24 28 01 00 	mov    0x128(%rsp),%rsi
  40469c:	00 
  40469d:	48 8b 84 24 f8 00 00 	mov    0xf8(%rsp),%rax
  4046a4:	00 
/usr/bin/../lib/gcc/x86_64-linux-gnu/9/../../../../include/c++/9/bits/vector.tcc:549
  4046a5:	48 8b 50 08          	mov    0x8(%rax),%rdx
  4046a9:	48 89 bc 24 a0 00 00 	mov    %rdi,0xa0(%rsp)
  4046b0:	00 
/usr/bin/../lib/gcc/x86_64-linux-gnu/9/../../../../include/c++/9/bits/vector.tcc:550
  4046b1:	48 89 c7             	mov    %rax,%rdi
  4046b4:	48 89 b4 24 98 00 00 	mov    %rsi,0x98(%rsp)
  4046bb:	00 
  4046bc:	48 89 94 24 90 00 00 	mov    %rdx,0x90(%rsp)
  4046c3:	00 
  4046c4:	e8 e7 05 00 00       	callq  404cb0 <_ZNSt12_Vector_baseIiSaIiEE19_M_get_Tp_allocatorEv>
  4046c9:	48 8b bc 24 a0 00 00 	mov    0xa0(%rsp),%rdi
  4046d0:	00 
  4046d1:	48 8b b4 24 98 00 00 	mov    0x98(%rsp),%rsi
  4046d8:	00 
  4046d9:	48 8b 94 24 90 00 00 	mov    0x90(%rsp),%rdx
  4046e0:	00 
/usr/bin/../lib/gcc/x86_64-linux-gnu/9/../../../../include/c++/9/bits/vector.tcc:548
  4046e1:	48 89 c1             	mov    %rax,%rcx
  4046e4:	e8 67 05 00 00       	callq  404c50 <_ZSt22__uninitialized_move_aIPiS0_SaIiEET0_T_S3_S2_RT1_>
  4046e9:	eb 00                	jmp    4046eb <_ZNSt6vectorIiSaIiEE14_M_fill_insertEN9__gnu_cxx17__normal_iteratorIPiS1_EEmRKi+0x32b>
/usr/bin/../lib/gcc/x86_64-linux-gnu/9/../../../../include/c++/9/bits/vector.tcc:551
  4046eb:	48 8b 84 24 38 01 00 	mov    0x138(%rsp),%rax
  4046f2:	00 
  4046f3:	48 8b 8c 24 f8 00 00 	mov    0xf8(%rsp),%rcx
  4046fa:	00 
  4046fb:	48 8b 51 08          	mov    0x8(%rcx),%rdx
  4046ff:	48 8d 04 82          	lea    (%rdx,%rax,4),%rax
  404703:	48 89 41 08          	mov    %rax,0x8(%rcx)
  404707:	48 8d bc 24 80 01 00 	lea    0x180(%rsp),%rdi
  40470e:	00 
/usr/bin/../lib/gcc/x86_64-linux-gnu/9/../../../../include/c++/9/bits/vector.tcc:553
  40470f:	e8 fc 05 00 00       	callq  404d10 <_ZNK9__gnu_cxx17__normal_iteratorIPiSt6vectorIiSaIiEEE4baseEv>
  404714:	48 8b 38             	mov    (%rax),%rdi
  404717:	48 8b b4 24 28 01 00 	mov    0x128(%rsp),%rsi
  40471e:	00 
  40471f:	48 8b 94 24 50 01 00 	mov    0x150(%rsp),%rdx
  404726:	00 
  404727:	e8 f4 05 00 00       	callq  404d20 <_ZSt4fillIPiiEvT_S1_RKT0_>
  40472c:	eb 00                	jmp    40472e <_ZNSt6vectorIiSaIiEE14_M_fill_insertEN9__gnu_cxx17__normal_iteratorIPiS1_EEmRKi+0x36e>
  40472e:	eb 00                	jmp    404730 <_ZNSt6vectorIiSaIiEE14_M_fill_insertEN9__gnu_cxx17__normal_iteratorIPiS1_EEmRKi+0x370>
/usr/bin/../lib/gcc/x86_64-linux-gnu/9/../../../../include/c++/9/bits/vector.tcc:555
  404730:	48 8d bc 24 58 01 00 	lea    0x158(%rsp),%rdi
  404737:	00 
  404738:	e8 73 06 00 00       	callq  404db0 <_ZNSt6vectorIiSaIiEE16_Temporary_valueD2Ev>
  40473d:	e9 77 03 00 00       	jmpq   404ab9 <_ZNSt6vectorIiSaIiEE14_M_fill_insertEN9__gnu_cxx17__normal_iteratorIPiS1_EEmRKi+0x6f9>
/usr/bin/../lib/gcc/x86_64-linux-gnu/9/../../../../include/c++/9/bits/vector.tcc:559
  404742:	48 8b b4 24 70 01 00 	mov    0x170(%rsp),%rsi
  404749:	00 
  40474a:	ba 4c b7 40 00       	mov    $0x40b74c,%edx
  40474f:	48 8b bc 24 f8 00 00 	mov    0xf8(%rsp),%rdi
  404756:	00 
  404757:	e8 a4 06 00 00       	callq  404e00 <_ZNKSt6vectorIiSaIiEE12_M_check_lenEmPKc>
/usr/bin/../lib/gcc/x86_64-linux-gnu/9/../../../../include/c++/9/bits/vector.tcc:558
  40475c:	48 89 84 24 20 01 00 	mov    %rax,0x120(%rsp)
  404763:	00 
  404764:	48 8b bc 24 f8 00 00 	mov    0xf8(%rsp),%rdi
  40476b:	00 
/usr/bin/../lib/gcc/x86_64-linux-gnu/9/../../../../include/c++/9/bits/vector.tcc:560
  40476c:	e8 7f 07 00 00       	callq  404ef0 <_ZNSt6vectorIiSaIiEE5beginEv>
  404771:	48 89 84 24 10 01 00 	mov    %rax,0x110(%rsp)
  404778:	00 
  404779:	48 8d bc 24 80 01 00 	lea    0x180(%rsp),%rdi
  404780:	00 
  404781:	48 8d b4 24 10 01 00 	lea    0x110(%rsp),%rsi
  404788:	00 
  404789:	e8 82 04 00 00       	callq  404c10 <_ZN9__gnu_cxxmiIPiSt6vectorIiSaIiEEEENS_17__normal_iteratorIT_T0_E15difference_typeERKS8_SB_>
  40478e:	48 89 84 24 18 01 00 	mov    %rax,0x118(%rsp)
  404795:	00 
/usr/bin/../lib/gcc/x86_64-linux-gnu/9/../../../../include/c++/9/bits/vector.tcc:561
  404796:	48 8b b4 24 20 01 00 	mov    0x120(%rsp),%rsi
  40479d:	00 
  40479e:	48 8b bc 24 f8 00 00 	mov    0xf8(%rsp),%rdi
  4047a5:	00 
  4047a6:	e8 75 07 00 00       	callq  404f20 <_ZNSt12_Vector_baseIiSaIiEE11_M_allocateEm>
  4047ab:	48 89 84 24 08 01 00 	mov    %rax,0x108(%rsp)
  4047b2:	00 
/usr/bin/../lib/gcc/x86_64-linux-gnu/9/../../../../include/c++/9/bits/vector.tcc:562
  4047b3:	48 8b 84 24 08 01 00 	mov    0x108(%rsp),%rax
  4047ba:	00 
  4047bb:	48 89 84 24 00 01 00 	mov    %rax,0x100(%rsp)
  4047c2:	00 
/usr/bin/../lib/gcc/x86_64-linux-gnu/9/../../../../include/c++/9/bits/vector.tcc:566
  4047c3:	48 8b 84 24 08 01 00 	mov    0x108(%rsp),%rax
  4047ca:	00 
  4047cb:	48 8b 8c 24 18 01 00 	mov    0x118(%rsp),%rcx
  4047d2:	00 
  4047d3:	48 8d 3c 88          	lea    (%rax,%rcx,4),%rdi
/usr/bin/../lib/gcc/x86_64-linux-gnu/9/../../../../include/c++/9/bits/vector.tcc:567
  4047d7:	48 8b b4 24 70 01 00 	mov    0x170(%rsp),%rsi
  4047de:	00 
  4047df:	48 8b 94 24 68 01 00 	mov    0x168(%rsp),%rdx
  4047e6:	00 
  4047e7:	48 8b 84 24 f8 00 00 	mov    0xf8(%rsp),%rax
  4047ee:	00 
  4047ef:	48 89 bc 24 88 00 00 	mov    %rdi,0x88(%rsp)
  4047f6:	00 
/usr/bin/../lib/gcc/x86_64-linux-gnu/9/../../../../include/c++/9/bits/vector.tcc:568
  4047f7:	48 89 c7             	mov    %rax,%rdi
  4047fa:	48 89 b4 24 80 00 00 	mov    %rsi,0x80(%rsp)
  404801:	00 
  404802:	48 89 54 24 78       	mov    %rdx,0x78(%rsp)
  404807:	e8 a4 04 00 00       	callq  404cb0 <_ZNSt12_Vector_baseIiSaIiEE19_M_get_Tp_allocatorEv>
  40480c:	48 8b bc 24 88 00 00 	mov    0x88(%rsp),%rdi
  404813:	00 
  404814:	48 8b b4 24 80 00 00 	mov    0x80(%rsp),%rsi
  40481b:	00 
  40481c:	48 8b 54 24 78       	mov    0x78(%rsp),%rdx
/usr/bin/../lib/gcc/x86_64-linux-gnu/9/../../../../include/c++/9/bits/vector.tcc:566
  404821:	48 89 c1             	mov    %rax,%rcx
  404824:	e8 47 05 00 00       	callq  404d70 <_ZSt24__uninitialized_fill_n_aIPimiiET_S1_T0_RKT1_RSaIT2_E>
  404829:	eb 00                	jmp    40482b <_ZNSt6vectorIiSaIiEE14_M_fill_insertEN9__gnu_cxx17__normal_iteratorIPiS1_EEmRKi+0x46b>
/usr/bin/../lib/gcc/x86_64-linux-gnu/9/../../../../include/c++/9/bits/vector.tcc:569
  40482b:	48 c7 84 24 00 01 00 	movq   $0x0,0x100(%rsp)
  404832:	00 00 00 00 00 
  404837:	48 8b 84 24 f8 00 00 	mov    0xf8(%rsp),%rax
  40483e:	00 
/usr/bin/../lib/gcc/x86_64-linux-gnu/9/../../../../include/c++/9/bits/vector.tcc:573
  40483f:	48 8b 38             	mov    (%rax),%rdi
  404842:	48 8d 8c 24 80 01 00 	lea    0x180(%rsp),%rcx
  404849:	00 
  40484a:	48 89 7c 24 70       	mov    %rdi,0x70(%rsp)
  40484f:	48 89 cf             	mov    %rcx,%rdi
  404852:	e8 b9 04 00 00       	callq  404d10 <_ZNK9__gnu_cxx17__normal_iteratorIPiSt6vectorIiSaIiEEE4baseEv>
  404857:	48 8b 30             	mov    (%rax),%rsi
/usr/bin/../lib/gcc/x86_64-linux-gnu/9/../../../../include/c++/9/bits/vector.tcc:574
  40485a:	48 8b 94 24 08 01 00 	mov    0x108(%rsp),%rdx
  404861:	00 
  404862:	48 8b bc 24 f8 00 00 	mov    0xf8(%rsp),%rdi
  404869:	00 
  40486a:	48 89 74 24 68       	mov    %rsi,0x68(%rsp)
  40486f:	48 89 54 24 60       	mov    %rdx,0x60(%rsp)
  404874:	e8 37 04 00 00       	callq  404cb0 <_ZNSt12_Vector_baseIiSaIiEE19_M_get_Tp_allocatorEv>
  404879:	48 8b 7c 24 70       	mov    0x70(%rsp),%rdi
  40487e:	48 8b 74 24 68       	mov    0x68(%rsp),%rsi
  404883:	48 8b 54 24 60       	mov    0x60(%rsp),%rdx
/usr/bin/../lib/gcc/x86_64-linux-gnu/9/../../../../include/c++/9/bits/vector.tcc:572
  404888:	48 89 c1             	mov    %rax,%rcx
  40488b:	e8 e0 06 00 00       	callq  404f70 <_ZSt34__uninitialized_move_if_noexcept_aIPiS0_SaIiEET0_T_S3_S2_RT1_>
  404890:	48 89 44 24 58       	mov    %rax,0x58(%rsp)
  404895:	eb 00                	jmp    404897 <_ZNSt6vectorIiSaIiEE14_M_fill_insertEN9__gnu_cxx17__normal_iteratorIPiS1_EEmRKi+0x4d7>
  404897:	48 8b 44 24 58       	mov    0x58(%rsp),%rax
  40489c:	48 89 84 24 00 01 00 	mov    %rax,0x100(%rsp)
  4048a3:	00 
/usr/bin/../lib/gcc/x86_64-linux-gnu/9/../../../../include/c++/9/bits/vector.tcc:576
  4048a4:	48 8b 8c 24 70 01 00 	mov    0x170(%rsp),%rcx
  4048ab:	00 
  4048ac:	48 8b 94 24 00 01 00 	mov    0x100(%rsp),%rdx
  4048b3:	00 
  4048b4:	48 8d 0c 8a          	lea    (%rdx,%rcx,4),%rcx
  4048b8:	48 89 8c 24 00 01 00 	mov    %rcx,0x100(%rsp)
  4048bf:	00 
  4048c0:	48 8d bc 24 80 01 00 	lea    0x180(%rsp),%rdi
  4048c7:	00 
/usr/bin/../lib/gcc/x86_64-linux-gnu/9/../../../../include/c++/9/bits/vector.tcc:580
  4048c8:	e8 43 04 00 00       	callq  404d10 <_ZNK9__gnu_cxx17__normal_iteratorIPiSt6vectorIiSaIiEEE4baseEv>
  4048cd:	48 8b 38             	mov    (%rax),%rdi
  4048d0:	48 8b 84 24 f8 00 00 	mov    0xf8(%rsp),%rax
  4048d7:	00 
  4048d8:	48 8b 70 08          	mov    0x8(%rax),%rsi
/usr/bin/../lib/gcc/x86_64-linux-gnu/9/../../../../include/c++/9/bits/vector.tcc:581
  4048dc:	48 8b 94 24 00 01 00 	mov    0x100(%rsp),%rdx
  4048e3:	00 
  4048e4:	48 89 7c 24 50       	mov    %rdi,0x50(%rsp)
  4048e9:	48 89 c7             	mov    %rax,%rdi
  4048ec:	48 89 74 24 48       	mov    %rsi,0x48(%rsp)
  4048f1:	48 89 54 24 40       	mov    %rdx,0x40(%rsp)
  4048f6:	e8 b5 03 00 00       	callq  404cb0 <_ZNSt12_Vector_baseIiSaIiEE19_M_get_Tp_allocatorEv>
  4048fb:	48 8b 7c 24 50       	mov    0x50(%rsp),%rdi
  404900:	48 8b 74 24 48       	mov    0x48(%rsp),%rsi
  404905:	48 8b 54 24 40       	mov    0x40(%rsp),%rdx
/usr/bin/../lib/gcc/x86_64-linux-gnu/9/../../../../include/c++/9/bits/vector.tcc:579
  40490a:	48 89 c1             	mov    %rax,%rcx
  40490d:	e8 5e 06 00 00       	callq  404f70 <_ZSt34__uninitialized_move_if_noexcept_aIPiS0_SaIiEET0_T_S3_S2_RT1_>
  404912:	48 89 44 24 38       	mov    %rax,0x38(%rsp)
  404917:	eb 00                	jmp    404919 <_ZNSt6vectorIiSaIiEE14_M_fill_insertEN9__gnu_cxx17__normal_iteratorIPiS1_EEmRKi+0x559>
  404919:	48 8b 44 24 38       	mov    0x38(%rsp),%rax
  40491e:	48 89 84 24 00 01 00 	mov    %rax,0x100(%rsp)
  404925:	00 
/usr/bin/../lib/gcc/x86_64-linux-gnu/9/../../../../include/c++/9/bits/vector.tcc:582
  404926:	e9 f8 00 00 00       	jmpq   404a23 <_ZNSt6vectorIiSaIiEE14_M_fill_insertEN9__gnu_cxx17__normal_iteratorIPiS1_EEmRKi+0x663>
/usr/bin/../lib/gcc/x86_64-linux-gnu/9/../../../../include/c++/9/bits/vector.tcc:606
  40492b:	48 89 84 24 48 01 00 	mov    %rax,0x148(%rsp)
  404932:	00 
  404933:	89 94 24 44 01 00 00 	mov    %edx,0x144(%rsp)
/usr/bin/../lib/gcc/x86_64-linux-gnu/9/../../../../include/c++/9/bits/vector.tcc:582
  40493a:	48 8b bc 24 48 01 00 	mov    0x148(%rsp),%rdi
  404941:	00 
  404942:	e8 29 c9 ff ff       	callq  401270 <__cxa_begin_catch@plt>
/usr/bin/../lib/gcc/x86_64-linux-gnu/9/../../../../include/c++/9/bits/vector.tcc:585
  404947:	48 83 bc 24 00 01 00 	cmpq   $0x0,0x100(%rsp)
  40494e:	00 00 
  404950:	75 63                	jne    4049b5 <_ZNSt6vectorIiSaIiEE14_M_fill_insertEN9__gnu_cxx17__normal_iteratorIPiS1_EEmRKi+0x5f5>
/usr/bin/../lib/gcc/x86_64-linux-gnu/9/../../../../include/c++/9/bits/vector.tcc:586
  404952:	48 8b 84 24 08 01 00 	mov    0x108(%rsp),%rax
  404959:	00 
  40495a:	48 8b 8c 24 18 01 00 	mov    0x118(%rsp),%rcx
  404961:	00 
  404962:	48 8d 04 88          	lea    (%rax,%rcx,4),%rax
/usr/bin/../lib/gcc/x86_64-linux-gnu/9/../../../../include/c++/9/bits/vector.tcc:587
  404966:	48 8b 8c 24 70 01 00 	mov    0x170(%rsp),%rcx
  40496d:	00 
  40496e:	48 8d 34 88          	lea    (%rax,%rcx,4),%rsi
  404972:	48 8b bc 24 f8 00 00 	mov    0xf8(%rsp),%rdi
  404979:	00 
  40497a:	48 89 44 24 30       	mov    %rax,0x30(%rsp)
  40497f:	48 89 74 24 28       	mov    %rsi,0x28(%rsp)
/usr/bin/../lib/gcc/x86_64-linux-gnu/9/../../../../include/c++/9/bits/vector.tcc:588
  404984:	e8 27 03 00 00       	callq  404cb0 <_ZNSt12_Vector_baseIiSaIiEE19_M_get_Tp_allocatorEv>
  404989:	48 8b 7c 24 30       	mov    0x30(%rsp),%rdi
  40498e:	48 8b 74 24 28       	mov    0x28(%rsp),%rsi
/usr/bin/../lib/gcc/x86_64-linux-gnu/9/../../../../include/c++/9/bits/vector.tcc:586
  404993:	48 89 c2             	mov    %rax,%rdx
  404996:	e8 35 06 00 00       	callq  404fd0 <_ZSt8_DestroyIPiiEvT_S1_RSaIT0_E>
  40499b:	eb 00                	jmp    40499d <_ZNSt6vectorIiSaIiEE14_M_fill_insertEN9__gnu_cxx17__normal_iteratorIPiS1_EEmRKi+0x5dd>
  40499d:	eb 56                	jmp    4049f5 <_ZNSt6vectorIiSaIiEE14_M_fill_insertEN9__gnu_cxx17__normal_iteratorIPiS1_EEmRKi+0x635>
/usr/bin/../lib/gcc/x86_64-linux-gnu/9/../../../../include/c++/9/bits/vector.tcc:606
  40499f:	48 89 84 24 48 01 00 	mov    %rax,0x148(%rsp)
  4049a6:	00 
  4049a7:	89 94 24 44 01 00 00 	mov    %edx,0x144(%rsp)
/usr/bin/../lib/gcc/x86_64-linux-gnu/9/../../../../include/c++/9/bits/vector.tcc:594
  4049ae:	e8 4d ca ff ff       	callq  401400 <__cxa_end_catch@plt>
  4049b3:	eb 69                	jmp    404a1e <_ZNSt6vectorIiSaIiEE14_M_fill_insertEN9__gnu_cxx17__normal_iteratorIPiS1_EEmRKi+0x65e>
/usr/bin/../lib/gcc/x86_64-linux-gnu/9/../../../../include/c++/9/bits/vector.tcc:590
  4049b5:	48 8b bc 24 08 01 00 	mov    0x108(%rsp),%rdi
  4049bc:	00 
  4049bd:	48 8b b4 24 00 01 00 	mov    0x100(%rsp),%rsi
  4049c4:	00 
  4049c5:	48 8b 84 24 f8 00 00 	mov    0xf8(%rsp),%rax
  4049cc:	00 
  4049cd:	48 89 7c 24 20       	mov    %rdi,0x20(%rsp)
/usr/bin/../lib/gcc/x86_64-linux-gnu/9/../../../../include/c++/9/bits/vector.tcc:591
  4049d2:	48 89 c7             	mov    %rax,%rdi
  4049d5:	48 89 74 24 18       	mov    %rsi,0x18(%rsp)
  4049da:	e8 d1 02 00 00       	callq  404cb0 <_ZNSt12_Vector_baseIiSaIiEE19_M_get_Tp_allocatorEv>
  4049df:	48 8b 7c 24 20       	mov    0x20(%rsp),%rdi
  4049e4:	48 8b 74 24 18       	mov    0x18(%rsp),%rsi
